EXPORTS
    ?$TSS0@?1???$default_value@UDelayAgnostic@webrtc@@@Config@webrtc@@CAABUDelayAgnostic@1@XZ@4HA DATA
    ?$TSS0@?1???$default_value@UExperimentalAgc@webrtc@@@Config@webrtc@@CAABUExperimentalAgc@1@XZ@4HA DATA
    ?$TSS0@?1???$default_value@UExperimentalNs@webrtc@@@Config@webrtc@@CAABUExperimentalNs@1@XZ@4HA DATA
    ?$TSS0@?1???$default_value@UExtendedFilter@webrtc@@@Config@webrtc@@CAABUExtendedFilter@1@XZ@4HA DATA
    ?$TSS0@?1???$default_value@URefinedAdaptiveFilter@webrtc@@@Config@webrtc@@CAABURefinedAdaptiveFilter@1@XZ@4HA DATA
    ??$?0ABVConfig@webrtc@@V?$unique_ptr@VCustomProcessing@webrtc@@U?$default_delete@VCustomProcessing@webrtc@@@std@@@std@@V23@V?$unique_ptr@VEchoControlFactory@webrtc@@U?$default_delete@VEchoControlFactory@webrtc@@@std@@@3@V?$scoped_refptr@VEchoDetector@webrtc@@@rtc@@V?$unique_ptr@VCustomAudioAnalyzer@webrtc@@U?$default_delete@VCustomAudioAnalyzer@webrtc@@@std@@@3@@?$RefCountedObject@VAudioProcessingImpl@webrtc@@@rtc@@QAE@ABVConfig@webrtc@@$$QAV?$unique_ptr@VCustomProcessing@webrtc@@U?$default_delete@VCustomProcessing@webrtc@@@std@@@std@@1$$QAV?$unique_ptr@VEchoControlFactory@webrtc@@U?$default_delete@VEchoControlFactory@webrtc@@@std@@@5@$$QAV?$scoped_refptr@VEchoDetector@webrtc@@@1@$$QAV?$unique_ptr@VCustomAudioAnalyzer@webrtc@@U?$default_delete@VCustomAudioAnalyzer@webrtc@@@std@@@5@@Z
    ??$?0PBFX@?$vector@MV?$allocator@M@std@@@std@@QAE@PBF0ABV?$allocator@M@1@@Z
    ??$?0V?$allocator@U?$_Tree_node@U?$pair@$$CBHH@std@@PAX@std@@@std@@@?$_Tree@V?$_Tmap_traits@HHU?$less@H@std@@V?$allocator@U?$pair@$$CBHH@std@@@2@$0A@@std@@@std@@QAE@ABV01@$$QAV?$allocator@U?$_Tree_node@U?$pair@$$CBHH@std@@PAX@std@@@1@@Z
    ??$?RV?$unique_ptr@VWPDNode@webrtc@@U?$default_delete@VWPDNode@webrtc@@@std@@@std@@$0A@@?$default_delete@$$BY0A@V?$unique_ptr@VWPDNode@webrtc@@U?$default_delete@VWPDNode@webrtc@@@std@@@std@@@std@@QBEXPAV?$unique_ptr@VWPDNode@webrtc@@U?$default_delete@VWPDNode@webrtc@@@std@@@1@@Z
    ??$AppendData@EV<lambda_1>@?0??EncodeImpl@?$AudioEncoderIsacT@UIsacFloat@webrtc@@@webrtc@@UAE?AUEncodedInfo@AudioEncoder@4@IV?$ArrayView@$$CBF$0?BCGH@@rtc@@PAV?$BufferT@E$0A@@8@@Z@$0A@@?$BufferT@E$0A@@rtc@@QAEII$$QAV<lambda_1>@?0??EncodeImpl@?$AudioEncoderIsacT@UIsacFloat@webrtc@@@webrtc@@UAE?AUEncodedInfo@AudioEncoder@5@IV?$ArrayView@$$CBF$0?BCGH@@1@PAV01@@Z@@Z
    ??$CheckedDivExact@I@rtc@@YAIII@Z
    ??$DownmixInterleavedToMono@F@webrtc@@YAXPBFIHPAF@Z
    ??$Get@UDelayAgnostic@webrtc@@@Config@webrtc@@QBEABUDelayAgnostic@1@XZ
    ??$Get@UExperimentalAgc@webrtc@@@Config@webrtc@@QBEABUExperimentalAgc@1@XZ
    ??$Get@UExperimentalNs@webrtc@@@Config@webrtc@@QBEABUExperimentalNs@1@XZ
    ??$Get@UExtendedFilter@webrtc@@@Config@webrtc@@QBEABUExtendedFilter@1@XZ
    ??$Get@URefinedAdaptiveFilter@webrtc@@@Config@webrtc@@QBEABURefinedAdaptiveFilter@1@XZ
    ??$GrowAndEmplaceBack@PAF@?$InlinedVector@PAF$07V?$allocator@PAF@std@@@absl@@AAEAAPAF$$QAPAF@Z
    ??$GrowAndEmplaceBack@PAM@?$InlinedVector@PAM$07V?$allocator@PAM@std@@@absl@@AAEAAPAM$$QAPAM@Z
    ??$ParseFloatingPoint@M@string_to_number_internal@rtc@@YA?AV?$optional@M@absl@@PBD@Z
    ??$ParseFloatingPoint@N@string_to_number_internal@rtc@@YA?AV?$optional@N@absl@@PBD@Z
    ??$ParseFloatingPoint@O@string_to_number_internal@rtc@@YA?AV?$optional@O@absl@@PBD@Z
    ??$_Buynode@ABV?$scoped_refptr@V?$RefCountedObject@VI420Buffer@webrtc@@@rtc@@@rtc@@@?$_List_buy@V?$scoped_refptr@V?$RefCountedObject@VI420Buffer@webrtc@@@rtc@@@rtc@@V?$allocator@V?$scoped_refptr@V?$RefCountedObject@VI420Buffer@webrtc@@@rtc@@@rtc@@@std@@@std@@QAEPAU?$_List_node@V?$scoped_refptr@V?$RefCountedObject@VI420Buffer@webrtc@@@rtc@@@rtc@@PAX@1@PAU21@0ABV?$scoped_refptr@V?$RefCountedObject@VI420Buffer@webrtc@@@rtc@@@rtc@@@Z
    ??$_Copy@U_Copy_tag@?$_Tree@V?$_Tmap_traits@HHU?$less@H@std@@V?$allocator@U?$pair@$$CBHH@std@@@2@$0A@@std@@@std@@@?$_Tree@V?$_Tmap_traits@HHU?$less@H@std@@V?$allocator@U?$pair@$$CBHH@std@@@2@$0A@@std@@@std@@IAEXABV01@U_Copy_tag@01@@Z
    ??$_Copy_nodes@U_Copy_tag@?$_Tree@V?$_Tmap_traits@HHU?$less@H@std@@V?$allocator@U?$pair@$$CBHH@std@@@2@$0A@@std@@@std@@@?$_Tree@V?$_Tmap_traits@HHU?$less@H@std@@V?$allocator@U?$pair@$$CBHH@std@@@2@$0A@@std@@@std@@IAEPAU?$_Tree_node@U?$pair@$$CBHH@std@@PAX@1@PAU21@0U_Copy_tag@01@@Z
    ??$_Emplace_back_with_unused_capacity@UChannelResampler@?$PushResampler@F@webrtc@@@?$vector@UChannelResampler@?$PushResampler@F@webrtc@@V?$allocator@UChannelResampler@?$PushResampler@F@webrtc@@@std@@@std@@AAE?A?<decltype-auto>@@$$QAUChannelResampler@?$PushResampler@F@webrtc@@@Z
    ??$_Emplace_back_with_unused_capacity@UChannelResampler@?$PushResampler@M@webrtc@@@?$vector@UChannelResampler@?$PushResampler@M@webrtc@@V?$allocator@UChannelResampler@?$PushResampler@M@webrtc@@@std@@@std@@AAE?A?<decltype-auto>@@$$QAUChannelResampler@?$PushResampler@M@webrtc@@@Z
    ??$_Emplace_reallocate@UBiQuad@CascadedBiQuadFilter@webrtc@@@?$vector@UBiQuad@CascadedBiQuadFilter@webrtc@@V?$allocator@UBiQuad@CascadedBiQuadFilter@webrtc@@@std@@@std@@QAEPAUBiQuad@CascadedBiQuadFilter@webrtc@@QAU234@$$QAU234@@Z
    ??$_Emplace_reallocate@UChannelResampler@?$PushResampler@F@webrtc@@@?$vector@UChannelResampler@?$PushResampler@F@webrtc@@V?$allocator@UChannelResampler@?$PushResampler@F@webrtc@@@std@@@std@@QAEPAUChannelResampler@?$PushResampler@F@webrtc@@QAU234@$$QAU234@@Z
    ??$_Emplace_reallocate@UChannelResampler@?$PushResampler@M@webrtc@@@?$vector@UChannelResampler@?$PushResampler@M@webrtc@@V?$allocator@UChannelResampler@?$PushResampler@M@webrtc@@@std@@@std@@QAEPAUChannelResampler@?$PushResampler@M@webrtc@@QAU234@$$QAU234@@Z
    ??$_Emplace_reallocate@V?$basic_string@DU?$char_traits@D@std@@V?$allocator@D@2@@std@@@?$vector@V?$basic_string@DU?$char_traits@D@std@@V?$allocator@D@2@@std@@V?$allocator@V?$basic_string@DU?$char_traits@D@std@@V?$allocator@D@2@@std@@@2@@std@@QAEPAV?$basic_string@DU?$char_traits@D@std@@V?$allocator@D@2@@1@QAV21@$$QAV21@@Z
    ??$_Emplace_reallocate@V?$unique_ptr@V?$ChannelBuffer@M@webrtc@@U?$default_delete@V?$ChannelBuffer@M@webrtc@@@std@@@std@@@?$vector@V?$unique_ptr@V?$ChannelBuffer@M@webrtc@@U?$default_delete@V?$ChannelBuffer@M@webrtc@@@std@@@std@@V?$allocator@V?$unique_ptr@V?$ChannelBuffer@M@webrtc@@U?$default_delete@V?$ChannelBuffer@M@webrtc@@@std@@@std@@@2@@std@@QAEPAV?$unique_ptr@V?$ChannelBuffer@M@webrtc@@U?$default_delete@V?$ChannelBuffer@M@webrtc@@@std@@@1@QAV21@$$QAV21@@Z
    ??$_Emplace_reallocate@V?$unique_ptr@VAudioConverter@webrtc@@U?$default_delete@VAudioConverter@webrtc@@@std@@@std@@@?$vector@V?$unique_ptr@VAudioConverter@webrtc@@U?$default_delete@VAudioConverter@webrtc@@@std@@@std@@V?$allocator@V?$unique_ptr@VAudioConverter@webrtc@@U?$default_delete@VAudioConverter@webrtc@@@std@@@std@@@2@@std@@QAEPAV?$unique_ptr@VAudioConverter@webrtc@@U?$default_delete@VAudioConverter@webrtc@@@std@@@1@QAV21@$$QAV21@@Z
    ??$_Emplace_reallocate@V?$unique_ptr@VPushSincResampler@webrtc@@U?$default_delete@VPushSincResampler@webrtc@@@std@@@std@@@?$vector@V?$unique_ptr@VPushSincResampler@webrtc@@U?$default_delete@VPushSincResampler@webrtc@@@std@@@std@@V?$allocator@V?$unique_ptr@VPushSincResampler@webrtc@@U?$default_delete@VPushSincResampler@webrtc@@@std@@@std@@@2@@std@@QAEPAV?$unique_ptr@VPushSincResampler@webrtc@@U?$default_delete@VPushSincResampler@webrtc@@@std@@@1@QAV21@$$QAV21@@Z
    ??$_Emplace_reallocate@V?$unique_ptr@VSparseFIRFilter@webrtc@@U?$default_delete@VSparseFIRFilter@webrtc@@@std@@@std@@@?$vector@V?$unique_ptr@VSparseFIRFilter@webrtc@@U?$default_delete@VSparseFIRFilter@webrtc@@@std@@@std@@V?$allocator@V?$unique_ptr@VSparseFIRFilter@webrtc@@U?$default_delete@VSparseFIRFilter@webrtc@@@std@@@std@@@2@@std@@QAEPAV?$unique_ptr@VSparseFIRFilter@webrtc@@U?$default_delete@VSparseFIRFilter@webrtc@@@std@@@1@QAV21@$$QAV21@@Z
    ??$_Fabs@M@std@@YAMABV?$complex@M@0@PAH@Z
    ??$_Insert@ABV?$scoped_refptr@V?$RefCountedObject@VI420Buffer@webrtc@@@rtc@@@rtc@@@?$list@V?$scoped_refptr@V?$RefCountedObject@VI420Buffer@webrtc@@@rtc@@@rtc@@V?$allocator@V?$scoped_refptr@V?$RefCountedObject@VI420Buffer@webrtc@@@rtc@@@rtc@@@std@@@std@@QAEXV?$_List_unchecked_const_iterator@V?$_List_val@U?$_List_simple_types@V?$scoped_refptr@V?$RefCountedObject@VI420Buffer@webrtc@@@rtc@@@rtc@@@std@@@std@@U_Iterator_base0@2@@1@ABV?$scoped_refptr@V?$RefCountedObject@VI420Buffer@webrtc@@@rtc@@@rtc@@@Z
    ??$_Insert@U?$pair@PAVLogSink@rtc@@W4LoggingSeverity@2@@std@@@?$list@U?$pair@PAVLogSink@rtc@@W4LoggingSeverity@2@@std@@V?$allocator@U?$pair@PAVLogSink@rtc@@W4LoggingSeverity@2@@std@@@2@@std@@QAEXV?$_List_unchecked_const_iterator@V?$_List_val@U?$_List_simple_types@U?$pair@PAVLogSink@rtc@@W4LoggingSeverity@2@@std@@@std@@@std@@U_Iterator_base0@2@@1@$$QAU?$pair@PAVLogSink@rtc@@W4LoggingSeverity@2@@1@@Z
    ??$_Insert_at@AAU?$pair@$$CBHH@std@@PAU?$_Tree_node@U?$pair@$$CBHH@std@@PAX@2@@?$_Tree@V?$_Tmap_traits@HHU?$less@H@std@@V?$allocator@U?$pair@$$CBHH@std@@@2@$0A@@std@@@std@@IAE?AV?$_Tree_iterator@V?$_Tree_val@U?$_Tree_simple_types@U?$pair@$$CBHH@std@@@std@@@std@@@1@_NPAU?$_Tree_node@U?$pair@$$CBHH@std@@PAX@1@AAU?$pair@$$CBHH@1@1@Z
    ??$_Insert_at@AAU?$pair@$$CBV?$basic_string@DU?$char_traits@D@std@@V?$allocator@D@2@@std@@V?$unique_ptr@USampleInfo@metrics@webrtc@@U?$default_delete@USampleInfo@metrics@webrtc@@@std@@@2@@std@@PAU?$_Tree_node@U?$pair@$$CBV?$basic_string@DU?$char_traits@D@std@@V?$allocator@D@2@@std@@V?$unique_ptr@USampleInfo@metrics@webrtc@@U?$default_delete@USampleInfo@metrics@webrtc@@@std@@@2@@std@@PAX@2@@?$_Tree@V?$_Tmap_traits@V?$basic_string@DU?$char_traits@D@std@@V?$allocator@D@2@@std@@V?$unique_ptr@USampleInfo@metrics@webrtc@@U?$default_delete@USampleInfo@metrics@webrtc@@@std@@@2@U?$less@V?$basic_string@DU?$char_traits@D@std@@V?$allocator@D@2@@std@@@2@V?$allocator@U?$pair@$$CBV?$basic_string@DU?$char_traits@D@std@@V?$allocator@D@2@@std@@V?$unique_ptr@USampleInfo@metrics@webrtc@@U?$default_delete@USampleInfo@metrics@webrtc@@@std@@@2@@std@@@2@$0A@@std@@@std@@IAE?AV?$_Tree_iterator@V?$_Tree_val@U?$_Tree_simple_types@U?$pair@$$CBV?$basic_string@DU?$char_traits@D@std@@V?$allocator@D@2@@std@@V?$unique_ptr@USampleInfo@metrics@webrtc@@U?$default_delete@USampleInfo@metrics@webrtc@@@std@@@2@@std@@@std@@@std@@@1@_NPAU?$_Tree_node@U?$pair@$$CBV?$basic_string@DU?$char_traits@D@std@@V?$allocator@D@2@@std@@V?$unique_ptr@USampleInfo@metrics@webrtc@@U?$default_delete@USampleInfo@metrics@webrtc@@@std@@@2@@std@@PAX@1@AAU?$pair@$$CBV?$basic_string@DU?$char_traits@D@std@@V?$allocator@D@2@@std@@V?$unique_ptr@USampleInfo@metrics@webrtc@@U?$default_delete@USampleInfo@metrics@webrtc@@@std@@@2@@1@1@Z
    ??$_Insert_hint@AAU?$pair@$$CBHH@std@@PAU?$_Tree_node@U?$pair@$$CBHH@std@@PAX@2@@?$_Tree@V?$_Tmap_traits@HHU?$less@H@std@@V?$allocator@U?$pair@$$CBHH@std@@@2@$0A@@std@@@std@@IAE?AV?$_Tree_iterator@V?$_Tree_val@U?$_Tree_simple_types@U?$pair@$$CBHH@std@@@std@@@std@@@1@V?$_Tree_const_iterator@V?$_Tree_val@U?$_Tree_simple_types@U?$pair@$$CBHH@std@@@std@@@std@@@1@AAU?$pair@$$CBHH@1@PAU?$_Tree_node@U?$pair@$$CBHH@std@@PAX@1@@Z
    ??$_Insert_nohint@AAU?$pair@$$CBHH@std@@PAU?$_Tree_node@U?$pair@$$CBHH@std@@PAX@2@@?$_Tree@V?$_Tmap_traits@HHU?$less@H@std@@V?$allocator@U?$pair@$$CBHH@std@@@2@$0A@@std@@@std@@IAE?AU?$pair@V?$_Tree_iterator@V?$_Tree_val@U?$_Tree_simple_types@U?$pair@$$CBHH@std@@@std@@@std@@@std@@_N@1@_NAAU?$pair@$$CBHH@1@PAU?$_Tree_node@U?$pair@$$CBHH@std@@PAX@1@@Z
    ??$_Insert_nohint@AAU?$pair@$$CBV?$basic_string@DU?$char_traits@D@std@@V?$allocator@D@2@@std@@V?$unique_ptr@USampleInfo@metrics@webrtc@@U?$default_delete@USampleInfo@metrics@webrtc@@@std@@@2@@std@@PAU?$_Tree_node@U?$pair@$$CBV?$basic_string@DU?$char_traits@D@std@@V?$allocator@D@2@@std@@V?$unique_ptr@USampleInfo@metrics@webrtc@@U?$default_delete@USampleInfo@metrics@webrtc@@@std@@@2@@std@@PAX@2@@?$_Tree@V?$_Tmap_traits@V?$basic_string@DU?$char_traits@D@std@@V?$allocator@D@2@@std@@V?$unique_ptr@USampleInfo@metrics@webrtc@@U?$default_delete@USampleInfo@metrics@webrtc@@@std@@@2@U?$less@V?$basic_string@DU?$char_traits@D@std@@V?$allocator@D@2@@std@@@2@V?$allocator@U?$pair@$$CBV?$basic_string@DU?$char_traits@D@std@@V?$allocator@D@2@@std@@V?$unique_ptr@USampleInfo@metrics@webrtc@@U?$default_delete@USampleInfo@metrics@webrtc@@@std@@@2@@std@@@2@$0A@@std@@@std@@IAE?AU?$pair@V?$_Tree_iterator@V?$_Tree_val@U?$_Tree_simple_types@U?$pair@$$CBV?$basic_string@DU?$char_traits@D@std@@V?$allocator@D@2@@std@@V?$unique_ptr@USampleInfo@metrics@webrtc@@U?$default_delete@USampleInfo@metrics@webrtc@@@std@@@2@@std@@@std@@@std@@@std@@_N@1@_NAAU?$pair@$$CBV?$basic_string@DU?$char_traits@D@std@@V?$allocator@D@2@@std@@V?$unique_ptr@USampleInfo@metrics@webrtc@@U?$default_delete@USampleInfo@metrics@webrtc@@@std@@@2@@1@PAU?$_Tree_node@U?$pair@$$CBV?$basic_string@DU?$char_traits@D@std@@V?$allocator@D@2@@std@@V?$unique_ptr@USampleInfo@metrics@webrtc@@U?$default_delete@USampleInfo@metrics@webrtc@@@std@@@2@@std@@PAX@1@@Z
    ??$_Insert_range@PAM@?$vector@MV?$allocator@M@std@@@std@@AAEXV?$_Vector_const_iterator@V?$_Vector_val@U?$_Simple_types@M@std@@@std@@@1@PAM1Uforward_iterator_tag@1@@Z
    ??$_Insert_range@PAV?$basic_string@DU?$char_traits@D@std@@V?$allocator@D@2@@std@@@?$vector@V?$basic_string@DU?$char_traits@D@std@@V?$allocator@D@2@@std@@V?$allocator@V?$basic_string@DU?$char_traits@D@std@@V?$allocator@D@2@@std@@@2@@std@@AAEXV?$_Vector_const_iterator@V?$_Vector_val@U?$_Simple_types@V?$basic_string@DU?$char_traits@D@std@@V?$allocator@D@2@@std@@@std@@@std@@@1@PAV?$basic_string@DU?$char_traits@D@std@@V?$allocator@D@2@@1@1Uforward_iterator_tag@1@@Z
    ??$_Insert_range@PBF@?$vector@FV?$allocator@F@std@@@std@@AAEXV?$_Vector_const_iterator@V?$_Vector_val@U?$_Simple_types@F@std@@@std@@@1@PBF1Uforward_iterator_tag@1@@Z
    ??$_Insert_range@PBM@?$vector@MV?$allocator@M@std@@@std@@AAEXV?$_Vector_const_iterator@V?$_Vector_val@U?$_Simple_types@M@std@@@std@@@1@PBM1Uforward_iterator_tag@1@@Z
    ??$_Max_element_unchecked@V?$_Deque_unchecked_iterator@V?$_Deque_val@U?$_Deque_simple_types@M@std@@@std@@@std@@U?$less@X@2@@std@@YA?AV?$_Deque_unchecked_iterator@V?$_Deque_val@U?$_Deque_simple_types@M@std@@@std@@@0@V10@0U?$less@X@0@@Z
    ??$_Minmax_element_unchecked@PAMU?$less@X@std@@@std@@YA?AU?$pair@PAMPAM@0@PAM0U?$less@X@0@@Z
    ??$_Minmax_element_unchecked@PBMU?$less@X@std@@@std@@YA?AU?$pair@PBMPBM@0@PBM0U?$less@X@0@@Z
    ??$_Range_construct_or_tidy@PBUBiQuadParam@CascadedBiQuadFilter@webrtc@@@?$vector@UBiQuadParam@CascadedBiQuadFilter@webrtc@@V?$allocator@UBiQuadParam@CascadedBiQuadFilter@webrtc@@@std@@@std@@AAEXPBUBiQuadParam@CascadedBiQuadFilter@webrtc@@0Uforward_iterator_tag@1@@Z
    ??$_Reallocate_for@V<lambda_1>@?0??assign@?$basic_string@DU?$char_traits@D@std@@V?$allocator@D@2@@std@@QAEAAV34@ID@Z@D@?$basic_string@DU?$char_traits@D@std@@V?$allocator@D@2@@std@@QAEAAV01@IV<lambda_1>@?0??assign@01@QAEAAV01@ID@Z@D@Z
    ??$_Reallocate_for@V<lambda_1>@?0??assign@?$basic_string@DU?$char_traits@D@std@@V?$allocator@D@2@@std@@QAEAAV34@QBDI@Z@PBD@?$basic_string@DU?$char_traits@D@std@@V?$allocator@D@2@@std@@QAEAAV01@IV<lambda_1>@?0??assign@01@QAEAAV01@QBDI@Z@PBD@Z
    ??$_Reallocate_grow_by@V<lambda_1>@?0??append@?$basic_string@DU?$char_traits@D@std@@V?$allocator@D@2@@std@@QAEAAV34@ID@Z@ID@?$basic_string@DU?$char_traits@D@std@@V?$allocator@D@2@@std@@QAEAAV01@IV<lambda_1>@?0??append@01@QAEAAV01@ID@Z@ID@Z
    ??$_Reallocate_grow_by@V<lambda_1>@?0??append@?$basic_string@DU?$char_traits@D@std@@V?$allocator@D@2@@std@@QAEAAV34@QBDI@Z@PBDI@?$basic_string@DU?$char_traits@D@std@@V?$allocator@D@2@@std@@QAEAAV01@IV<lambda_1>@?0??append@01@QAEAAV01@QBDI@Z@PBDI@Z
    ??$_Reallocate_grow_by@V<lambda_1>@?0??insert@?$basic_string@DU?$char_traits@D@std@@V?$allocator@D@2@@std@@QAEAAV34@IQBDI@Z@IPBDI@?$basic_string@DU?$char_traits@D@std@@V?$allocator@D@2@@std@@QAEAAV01@IV<lambda_1>@?0??insert@01@QAEAAV01@IQBDI@Z@IPBDI@Z
    ??$_Reallocate_grow_by@V<lambda_1>@?0??push_back@?$basic_string@DU?$char_traits@D@std@@V?$allocator@D@2@@std@@QAEXD@Z@D@?$basic_string@DU?$char_traits@D@std@@V?$allocator@D@2@@std@@QAEAAV01@IV<lambda_1>@?0??push_back@01@QAEXD@Z@D@Z
    ??$_Reallocate_grow_by@V<lambda_1>@?0??reserve@?$basic_string@DU?$char_traits@D@std@@V?$allocator@D@2@@std@@QAEXI@Z@$$V@?$basic_string@DU?$char_traits@D@std@@V?$allocator@D@2@@std@@QAEAAV01@IV<lambda_1>@?0??reserve@01@QAEXI@Z@@Z
    ??$_Resize@V<lambda_1>@?0??resize@?$vector@FV?$allocator@F@std@@@std@@QAEXI@Z@@?$vector@FV?$allocator@F@std@@@std@@AAEXIV<lambda_1>@?0??resize@01@QAEXI@Z@@Z
    ??$_Resize@V<lambda_1>@?0??resize@?$vector@MV?$allocator@M@std@@@std@@QAEXI@Z@@?$vector@MV?$allocator@M@std@@@std@@AAEXIV<lambda_1>@?0??resize@01@QAEXI@Z@@Z
    ??$_Resize@V<lambda_1>@?0??resize@?$vector@NV?$allocator@N@std@@@std@@QAEXI@Z@@?$vector@NV?$allocator@N@std@@@std@@AAEXIV<lambda_1>@?0??resize@01@QAEXI@Z@@Z
    ??$_Resize@V<lambda_1>@?0??resize@?$vector@UFftData@webrtc@@V?$allocator@UFftData@webrtc@@@std@@@std@@QAEXI@Z@@?$vector@UFftData@webrtc@@V?$allocator@UFftData@webrtc@@@std@@@std@@AAEXIV<lambda_1>@?0??resize@01@QAEXI@Z@@Z
    ??$_Resize@V<lambda_1>@?0??resize@?$vector@V?$array@M$0EB@@std@@V?$allocator@V?$array@M$0EB@@std@@@2@@std@@QAEXI@Z@@?$vector@V?$array@M$0EB@@std@@V?$allocator@V?$array@M$0EB@@std@@@2@@std@@AAEXIV<lambda_1>@?0??resize@01@QAEXI@Z@@Z
    ??$_Resize@V<lambda_1>@?0??resize@?$vector@V?$complex@M@std@@V?$allocator@V?$complex@M@std@@@2@@std@@QAEXI@Z@@?$vector@V?$complex@M@std@@V?$allocator@V?$complex@M@std@@@2@@std@@AAEXIV<lambda_1>@?0??resize@01@QAEXI@Z@@Z
    ??$_Resize@V<lambda_1>@?0??resize@?$vector@V?$unique_ptr@VBiquadFilter@LowCutFilter@webrtc@@U?$default_delete@VBiquadFilter@LowCutFilter@webrtc@@@std@@@std@@V?$allocator@V?$unique_ptr@VBiquadFilter@LowCutFilter@webrtc@@U?$default_delete@VBiquadFilter@LowCutFilter@webrtc@@@std@@@std@@@2@@std@@QAEXI@Z@@?$vector@V?$unique_ptr@VBiquadFilter@LowCutFilter@webrtc@@U?$default_delete@VBiquadFilter@LowCutFilter@webrtc@@@std@@@std@@V?$allocator@V?$unique_ptr@VBiquadFilter@LowCutFilter@webrtc@@U?$default_delete@VBiquadFilter@LowCutFilter@webrtc@@@std@@@std@@@2@@std@@AAEXIV<lambda_1>@?0??resize@01@QAEXI@Z@@Z
    ??$_Resize@V<lambda_1>@?0??resize@?$vector@V?$unique_ptr@VCanceller@EchoCancellationImpl@webrtc@@U?$default_delete@VCanceller@EchoCancellationImpl@webrtc@@@std@@@std@@V?$allocator@V?$unique_ptr@VCanceller@EchoCancellationImpl@webrtc@@U?$default_delete@VCanceller@EchoCancellationImpl@webrtc@@@std@@@std@@@2@@std@@QAEXI@Z@@?$vector@V?$unique_ptr@VCanceller@EchoCancellationImpl@webrtc@@U?$default_delete@VCanceller@EchoCancellationImpl@webrtc@@@std@@@std@@V?$allocator@V?$unique_ptr@VCanceller@EchoCancellationImpl@webrtc@@U?$default_delete@VCanceller@EchoCancellationImpl@webrtc@@@std@@@std@@@2@@std@@AAEXIV<lambda_1>@?0??resize@01@QAEXI@Z@@Z
    ??$_Resize@V<lambda_1>@?0??resize@?$vector@V?$unique_ptr@VCanceller@EchoControlMobileImpl@webrtc@@U?$default_delete@VCanceller@EchoControlMobileImpl@webrtc@@@std@@@std@@V?$allocator@V?$unique_ptr@VCanceller@EchoControlMobileImpl@webrtc@@U?$default_delete@VCanceller@EchoControlMobileImpl@webrtc@@@std@@@std@@@2@@std@@QAEXI@Z@@?$vector@V?$unique_ptr@VCanceller@EchoControlMobileImpl@webrtc@@U?$default_delete@VCanceller@EchoControlMobileImpl@webrtc@@@std@@@std@@V?$allocator@V?$unique_ptr@VCanceller@EchoControlMobileImpl@webrtc@@U?$default_delete@VCanceller@EchoControlMobileImpl@webrtc@@@std@@@std@@@2@@std@@AAEXIV<lambda_1>@?0??resize@01@QAEXI@Z@@Z
    ??$_Resize@V<lambda_1>@?0??resize@?$vector@V?$unique_ptr@VGainController@GainControlImpl@webrtc@@U?$default_delete@VGainController@GainControlImpl@webrtc@@@std@@@std@@V?$allocator@V?$unique_ptr@VGainController@GainControlImpl@webrtc@@U?$default_delete@VGainController@GainControlImpl@webrtc@@@std@@@std@@@2@@std@@QAEXI@Z@@?$vector@V?$unique_ptr@VGainController@GainControlImpl@webrtc@@U?$default_delete@VGainController@GainControlImpl@webrtc@@@std@@@std@@V?$allocator@V?$unique_ptr@VGainController@GainControlImpl@webrtc@@U?$default_delete@VGainController@GainControlImpl@webrtc@@@std@@@std@@@2@@std@@AAEXIV<lambda_1>@?0??resize@01@QAEXI@Z@@Z
    ??$_Resize@V<lambda_1>@?0??resize@?$vector@V?$unique_ptr@VSuppressor@NoiseSuppressionImpl@webrtc@@U?$default_delete@VSuppressor@NoiseSuppressionImpl@webrtc@@@std@@@std@@V?$allocator@V?$unique_ptr@VSuppressor@NoiseSuppressionImpl@webrtc@@U?$default_delete@VSuppressor@NoiseSuppressionImpl@webrtc@@@std@@@std@@@2@@std@@QAEXI@Z@@?$vector@V?$unique_ptr@VSuppressor@NoiseSuppressionImpl@webrtc@@U?$default_delete@VSuppressor@NoiseSuppressionImpl@webrtc@@@std@@@std@@V?$allocator@V?$unique_ptr@VSuppressor@NoiseSuppressionImpl@webrtc@@U?$default_delete@VSuppressor@NoiseSuppressionImpl@webrtc@@@std@@@std@@@2@@std@@AAEXIV<lambda_1>@?0??resize@01@QAEXI@Z@@Z
    ??$_Resize@V<lambda_1>@?0??resize@?$vector@V?$vector@MV?$allocator@M@std@@@std@@V?$allocator@V?$vector@MV?$allocator@M@std@@@std@@@2@@std@@QAEXI@Z@@?$vector@V?$vector@MV?$allocator@M@std@@@std@@V?$allocator@V?$vector@MV?$allocator@M@std@@@std@@@2@@std@@AAEXIV<lambda_1>@?0??resize@01@QAEXI@Z@@Z
    ??$_Traits_find@U?$char_traits@D@std@@@std@@YAIQBDII0I@Z
    ??$_Traits_find_last_not_of@U?$char_traits@D@std@@@std@@YAIQBDII0IU?$integral_constant@_N$00@0@@Z
    ??$_Try_emplace@ABH$$V@?$map@HHU?$less@H@std@@V?$allocator@U?$pair@$$CBHH@std@@@2@@std@@QAE?AU?$pair@V?$_Tree_iterator@V?$_Tree_val@U?$_Tree_simple_types@U?$pair@$$CBHH@std@@@std@@@std@@@std@@_N@1@ABH@Z
    ??$assign@ABVColorSpace@webrtc@@@?$optional_data_base@VColorSpace@webrtc@@@optional_internal@absl@@IAEXABVColorSpace@webrtc@@@Z
    ??$assign@VColorSpace@webrtc@@@?$optional_data_base@VColorSpace@webrtc@@@optional_internal@absl@@IAEX$$QAVColorSpace@webrtc@@@Z
    ??$default_value@UDelayAgnostic@webrtc@@@Config@webrtc@@CAABUDelayAgnostic@1@XZ
    ??$default_value@UExperimentalAgc@webrtc@@@Config@webrtc@@CAABUExperimentalAgc@1@XZ
    ??$default_value@UExperimentalNs@webrtc@@@Config@webrtc@@CAABUExperimentalNs@1@XZ
    ??$default_value@UExtendedFilter@webrtc@@@Config@webrtc@@CAABUExtendedFilter@1@XZ
    ??$default_value@URefinedAdaptiveFilter@webrtc@@@Config@webrtc@@CAABURefinedAdaptiveFilter@1@XZ
    ??$destroy@UChannelResampler@?$PushResampler@F@webrtc@@@?$_Default_allocator_traits@V?$allocator@UChannelResampler@?$PushResampler@F@webrtc@@@std@@@std@@SAXAAV?$allocator@UChannelResampler@?$PushResampler@F@webrtc@@@1@QAUChannelResampler@?$PushResampler@F@webrtc@@@Z
    ??$destroy@UChannelResampler@?$PushResampler@M@webrtc@@@?$_Default_allocator_traits@V?$allocator@UChannelResampler@?$PushResampler@M@webrtc@@@std@@@std@@SAXAAV?$allocator@UChannelResampler@?$PushResampler@M@webrtc@@@1@QAUChannelResampler@?$PushResampler@M@webrtc@@@Z
    ??$emplace_back@PAF@?$InlinedVector@PAF$07V?$allocator@PAF@std@@@absl@@QAEAAPAF$$QAPAF@Z
    ??$emplace_back@PAM@?$InlinedVector@PAM$07V?$allocator@PAM@std@@@absl@@QAEAAPAM$$QAPAM@Z
    ??$emplace_back@UChannelResampler@?$PushResampler@F@webrtc@@@?$vector@UChannelResampler@?$PushResampler@F@webrtc@@V?$allocator@UChannelResampler@?$PushResampler@F@webrtc@@@std@@@std@@QAE?A?<decltype-auto>@@$$QAUChannelResampler@?$PushResampler@F@webrtc@@@Z
    ??$emplace_back@UChannelResampler@?$PushResampler@M@webrtc@@@?$vector@UChannelResampler@?$PushResampler@M@webrtc@@V?$allocator@UChannelResampler@?$PushResampler@M@webrtc@@@std@@@std@@QAE?A?<decltype-auto>@@$$QAUChannelResampler@?$PushResampler@M@webrtc@@@Z
    ??$emplace_back@V?$basic_string@DU?$char_traits@D@std@@V?$allocator@D@2@@std@@@?$vector@V?$basic_string@DU?$char_traits@D@std@@V?$allocator@D@2@@std@@V?$allocator@V?$basic_string@DU?$char_traits@D@std@@V?$allocator@D@2@@std@@@2@@std@@QAE?A?<decltype-auto>@@$$QAV?$basic_string@DU?$char_traits@D@std@@V?$allocator@D@2@@1@@Z
    ??$emplace_back@V?$unique_ptr@V?$ChannelBuffer@M@webrtc@@U?$default_delete@V?$ChannelBuffer@M@webrtc@@@std@@@std@@@?$vector@V?$unique_ptr@V?$ChannelBuffer@M@webrtc@@U?$default_delete@V?$ChannelBuffer@M@webrtc@@@std@@@std@@V?$allocator@V?$unique_ptr@V?$ChannelBuffer@M@webrtc@@U?$default_delete@V?$ChannelBuffer@M@webrtc@@@std@@@std@@@2@@std@@QAE?A?<decltype-auto>@@$$QAV?$unique_ptr@V?$ChannelBuffer@M@webrtc@@U?$default_delete@V?$ChannelBuffer@M@webrtc@@@std@@@1@@Z
    ??$emplace_back@V?$unique_ptr@VAudioConverter@webrtc@@U?$default_delete@VAudioConverter@webrtc@@@std@@@std@@@?$vector@V?$unique_ptr@VAudioConverter@webrtc@@U?$default_delete@VAudioConverter@webrtc@@@std@@@std@@V?$allocator@V?$unique_ptr@VAudioConverter@webrtc@@U?$default_delete@VAudioConverter@webrtc@@@std@@@std@@@2@@std@@QAE?A?<decltype-auto>@@$$QAV?$unique_ptr@VAudioConverter@webrtc@@U?$default_delete@VAudioConverter@webrtc@@@std@@@1@@Z
    ??$emplace_back@V?$unique_ptr@VPushSincResampler@webrtc@@U?$default_delete@VPushSincResampler@webrtc@@@std@@@std@@@?$vector@V?$unique_ptr@VPushSincResampler@webrtc@@U?$default_delete@VPushSincResampler@webrtc@@@std@@@std@@V?$allocator@V?$unique_ptr@VPushSincResampler@webrtc@@U?$default_delete@VPushSincResampler@webrtc@@@std@@@std@@@2@@std@@QAE?A?<decltype-auto>@@$$QAV?$unique_ptr@VPushSincResampler@webrtc@@U?$default_delete@VPushSincResampler@webrtc@@@std@@@1@@Z
    ??$emplace_back@V?$unique_ptr@VSparseFIRFilter@webrtc@@U?$default_delete@VSparseFIRFilter@webrtc@@@std@@@std@@@?$vector@V?$unique_ptr@VSparseFIRFilter@webrtc@@U?$default_delete@VSparseFIRFilter@webrtc@@@std@@@std@@V?$allocator@V?$unique_ptr@VSparseFIRFilter@webrtc@@U?$default_delete@VSparseFIRFilter@webrtc@@@std@@@std@@@2@@std@@QAE?A?<decltype-auto>@@$$QAV?$unique_ptr@VSparseFIRFilter@webrtc@@U?$default_delete@VSparseFIRFilter@webrtc@@@std@@@1@@Z
    ??$emplace_hint@ABUpiecewise_construct_t@std@@V?$tuple@ABH@2@V?$tuple@$$V@2@@?$_Tree@V?$_Tmap_traits@HHU?$less@H@std@@V?$allocator@U?$pair@$$CBHH@std@@@2@$0A@@std@@@std@@QAE?AV?$_Tree_iterator@V?$_Tree_val@U?$_Tree_simple_types@U?$pair@$$CBHH@std@@@std@@@std@@@1@V?$_Tree_const_iterator@V?$_Tree_val@U?$_Tree_simple_types@U?$pair@$$CBHH@std@@@std@@@std@@@1@ABUpiecewise_construct_t@1@$$QAV?$tuple@ABH@1@$$QAV?$tuple@$$V@1@@Z
    ??$max_element@V?$_Deque_iterator@V?$_Deque_val@U?$_Deque_simple_types@M@std@@@std@@@std@@@std@@YA?AV?$_Deque_iterator@V?$_Deque_val@U?$_Deque_simple_types@M@std@@@std@@@0@V10@0@Z
    ??$max_element@V?$_Deque_iterator@V?$_Deque_val@U?$_Deque_simple_types@M@std@@@std@@@std@@U?$less@X@2@@std@@YA?AV?$_Deque_iterator@V?$_Deque_val@U?$_Deque_simple_types@M@std@@@std@@@0@V10@0U?$less@X@0@@Z
    ??0?$AudioDecoderIsacT@UIsacFloat@webrtc@@@webrtc@@QAE@H@Z
    ??0?$AudioDecoderIsacT@UIsacFloat@webrtc@@@webrtc@@QAE@HABV?$scoped_refptr@VLockedIsacBandwidthInfo@webrtc@@@rtc@@@Z
    ??0?$AudioEncoderIsacT@UIsacFloat@webrtc@@@webrtc@@QAE@ABUConfig@01@@Z
    ??0?$ChannelBuffer@F@webrtc@@QAE@III@Z
    ??0?$ChannelBuffer@M@webrtc@@QAE@III@Z
    ??0?$PushResampler@F@webrtc@@QAE@XZ
    ??0?$PushResampler@M@webrtc@@QAE@XZ
    ??0?$SwapQueue@VRuntimeSetting@AudioProcessing@webrtc@@V?$SwapQueueItemVerifier@VRuntimeSetting@AudioProcessing@webrtc@@$1??$NoopSwapQueueItemVerifierFunction@VRuntimeSetting@AudioProcessing@webrtc@@@internal@3@YA_NABV123@@Z@3@@webrtc@@QAE@I@Z
    ??0?$vector@FV?$allocator@F@std@@@std@@QAE@ABV01@@Z
    ??0?$vector@HV?$allocator@H@std@@@std@@QAE@IABHABV?$allocator@H@1@@Z
    ??0?$vector@IV?$allocator@I@std@@@std@@QAE@IABIABV?$allocator@I@1@@Z
    ??0?$vector@MV?$allocator@M@std@@@std@@QAE@ABV01@@Z
    ??0?$vector@MV?$allocator@M@std@@@std@@QAE@IABMABV?$allocator@M@1@@Z
    ??0?$vector@UBiQuad@CascadedBiQuadFilter@webrtc@@V?$allocator@UBiQuad@CascadedBiQuadFilter@webrtc@@@std@@@std@@QAE@IABUBiQuad@CascadedBiQuadFilter@webrtc@@ABV?$allocator@UBiQuad@CascadedBiQuadFilter@webrtc@@@1@@Z
    ??0?$vector@UFftData@webrtc@@V?$allocator@UFftData@webrtc@@@std@@@std@@QAE@IABV?$allocator@UFftData@webrtc@@@1@@Z
    ??0?$vector@ULagEstimate@MatchedFilter@webrtc@@V?$allocator@ULagEstimate@MatchedFilter@webrtc@@@std@@@std@@QAE@IABV?$allocator@ULagEstimate@MatchedFilter@webrtc@@@1@@Z
    ??0?$vector@V?$array@M$05@std@@V?$allocator@V?$array@M$05@std@@@2@@std@@QAE@IABV?$allocator@V?$array@M$05@std@@@1@@Z
    ??0?$vector@V?$array@M$0EA@@std@@V?$allocator@V?$array@M$0EA@@std@@@2@@std@@QAE@IABV?$allocator@V?$array@M$0EA@@std@@@1@@Z
    ??0?$vector@V?$array@M$0EB@@std@@V?$allocator@V?$array@M$0EB@@std@@@2@@std@@QAE@IABV?$allocator@V?$array@M$0EB@@std@@@1@@Z
    ??0?$vector@V?$array@M$0EB@@std@@V?$allocator@V?$array@M$0EB@@std@@@2@@std@@QAE@IABV?$array@M$0EB@@1@ABV?$allocator@V?$array@M$0EB@@std@@@1@@Z
    ??0?$vector@V?$complex@M@std@@V?$allocator@V?$complex@M@std@@@2@@std@@QAE@ABV01@@Z
    ??0?$vector@V?$vector@FV?$allocator@F@std@@@std@@V?$allocator@V?$vector@FV?$allocator@F@std@@@std@@@2@@std@@QAE@IABV?$vector@FV?$allocator@F@std@@@1@ABV?$allocator@V?$vector@FV?$allocator@F@std@@@std@@@1@@Z
    ??0?$vector@V?$vector@MV?$allocator@M@std@@@std@@V?$allocator@V?$vector@MV?$allocator@M@std@@@std@@@2@@std@@QAE@ABV01@@Z
    ??0?$vector@V?$vector@MV?$allocator@M@std@@@std@@V?$allocator@V?$vector@MV?$allocator@M@std@@@std@@@2@@std@@QAE@IABV?$allocator@V?$vector@MV?$allocator@M@std@@@std@@@1@@Z
    ??0?$vector@V?$vector@MV?$allocator@M@std@@@std@@V?$allocator@V?$vector@MV?$allocator@M@std@@@std@@@2@@std@@QAE@IABV?$vector@MV?$allocator@M@std@@@1@ABV?$allocator@V?$vector@MV?$allocator@M@std@@@std@@@1@@Z
    ??0?$vector@V?$vector@V?$vector@MV?$allocator@M@std@@@std@@V?$allocator@V?$vector@MV?$allocator@M@std@@@std@@@2@@std@@V?$allocator@V?$vector@V?$vector@MV?$allocator@M@std@@@std@@V?$allocator@V?$vector@MV?$allocator@M@std@@@std@@@2@@std@@@2@@std@@QAE@IABV?$vector@V?$vector@MV?$allocator@M@std@@@std@@V?$allocator@V?$vector@MV?$allocator@M@std@@@std@@@2@@1@ABV?$allocator@V?$vector@V?$vector@MV?$allocator@M@std@@@std@@V?$allocator@V?$vector@MV?$allocator@M@std@@@std@@@2@@std@@@1@@Z
    ??0AdaptiveAgc@webrtc@@QAE@PAVApmDataDumper@1@@Z
    ??0AdaptiveAgc@webrtc@@QAE@PAVApmDataDumper@1@ABUGainController2@Config@AudioProcessing@1@@Z
    ??0AdaptiveDigitalGainApplier@webrtc@@QAE@PAVApmDataDumper@1@@Z
    ??0AdaptiveFirFilter@webrtc@@QAE@IIIW4Aec3Optimization@1@PAVApmDataDumper@1@@Z
    ??0AdaptiveModeLevelEstimator@webrtc@@QAE@PAVApmDataDumper@1@@Z
    ??0AdaptiveModeLevelEstimator@webrtc@@QAE@PAVApmDataDumper@1@W4LevelEstimator@GainController2@Config@AudioProcessing@1@_NM@Z
    ??0AdaptiveModeLevelEstimatorAgc@webrtc@@QAE@PAVApmDataDumper@1@@Z
    ??0Aec@webrtc@@QAE@XZ
    ??0AecCore@webrtc@@QAE@H@Z
    ??0AecState@webrtc@@QAE@ABUEchoCanceller3Config@1@@Z
    ??0Agc@webrtc@@QAE@XZ
    ??0AgcManagerDirect@webrtc@@AAE@PAVAgc@1@PAVGainControl@1@PAVVolumeCallbacks@1@HH@Z
    ??0AgcManagerDirect@webrtc@@AAE@PAVAgc@1@PAVGainControl@1@PAVVolumeCallbacks@1@HH_N3@Z
    ??0AgcManagerDirect@webrtc@@QAE@PAVGainControl@1@PAVVolumeCallbacks@1@HH_N2@Z
    ??0ApiCallJitterMetrics@webrtc@@QAE@XZ
    ??0ApmCaptureState@AudioProcessingImpl@webrtc@@QAE@_N@Z
    ??0ApmDataDumper@webrtc@@QAE@H@Z
    ??0ApmPrivateSubmodules@AudioProcessingImpl@webrtc@@QAE@V?$unique_ptr@VCustomProcessing@webrtc@@U?$default_delete@VCustomProcessing@webrtc@@@std@@@std@@0V?$scoped_refptr@VEchoDetector@webrtc@@@rtc@@V?$unique_ptr@VCustomAudioAnalyzer@webrtc@@U?$default_delete@VCustomAudioAnalyzer@webrtc@@@std@@@4@@Z
    ??0ApmRenderState@AudioProcessingImpl@webrtc@@QAE@XZ
    ??0ApmSubmoduleStates@AudioProcessingImpl@webrtc@@QAE@_N00@Z
    ??0AudioBuffer@webrtc@@QAE@IIIII@Z
    ??0AudioConverter@webrtc@@IAE@IIII@Z
    ??0AudioConverter@webrtc@@IAE@XZ
    ??0AudioFrame@webrtc@@QAE@XZ
    ??0AudioProcessingBuilder@webrtc@@QAE@XZ
    ??0AudioProcessingImpl@webrtc@@QAE@ABVConfig@1@@Z
    ??0AudioProcessingImpl@webrtc@@QAE@ABVConfig@1@V?$unique_ptr@VCustomProcessing@webrtc@@U?$default_delete@VCustomProcessing@webrtc@@@std@@@std@@1V?$unique_ptr@VEchoControlFactory@webrtc@@U?$default_delete@VEchoControlFactory@webrtc@@@std@@@4@V?$scoped_refptr@VEchoDetector@webrtc@@@rtc@@V?$unique_ptr@VCustomAudioAnalyzer@webrtc@@U?$default_delete@VCustomAudioAnalyzer@webrtc@@@std@@@4@@Z
    ??0AudioProcessingStats@webrtc@@QAE@ABU01@@Z
    ??0AudioProcessingStats@webrtc@@QAE@XZ
    ??0BandAnalysisFft@rnn_vad@webrtc@@QAE@XZ
    ??0BiQuad@CascadedBiQuadFilter@webrtc@@QAE@ABUBiQuadParam@12@@Z
    ??0BiQuadParam@CascadedBiQuadFilter@webrtc@@QAE@ABU012@@Z
    ??0BiQuadParam@CascadedBiQuadFilter@webrtc@@QAE@V?$complex@M@std@@0M_N@Z
    ??0BlockBuffer@webrtc@@QAE@XZ
    ??0BlockDelayBuffer@webrtc@@QAE@III@Z
    ??0BlockFramer@webrtc@@QAE@I@Z
    ??0BlockMeanCalculator@webrtc@@QAE@I@Z
    ??0Builder@VideoFrame@webrtc@@QAE@XZ
    ??0Canceller@EchoControlMobileImpl@webrtc@@QAE@XZ
    ??0CascadedBiQuadFilter@webrtc@@QAE@ABUBiQuadCoefficients@01@I@Z
    ??0CascadedBiQuadFilter@webrtc@@QAE@ABV?$vector@UBiQuadParam@CascadedBiQuadFilter@webrtc@@V?$allocator@UBiQuadParam@CascadedBiQuadFilter@webrtc@@@std@@@std@@@Z
    ??0Chromaticity@HdrMasteringMetadata@webrtc@@QAE@XZ
    ??0CircularBuffer@webrtc@@QAE@I@Z
    ??0ClockdriftDetector@webrtc@@QAE@XZ
    ??0ColorSpace@webrtc@@QAE@$$QAV01@@Z
    ??0ColorSpace@webrtc@@QAE@ABV01@@Z
    ??0ColorSpace@webrtc@@QAE@W4PrimaryID@01@W4TransferID@01@W4MatrixID@01@W4RangeID@01@@Z
    ??0ColorSpace@webrtc@@QAE@W4PrimaryID@01@W4TransferID@01@W4MatrixID@01@W4RangeID@01@W4ChromaSiting@01@4PBUHdrMetadata@1@@Z
    ??0ColorSpace@webrtc@@QAE@XZ
    ??0ComfortNoiseGenerator@webrtc@@QAE@W4Aec3Optimization@1@@Z
    ??0CompositionConverter@webrtc@@QAE@V?$vector@V?$unique_ptr@VAudioConverter@webrtc@@U?$default_delete@VAudioConverter@webrtc@@@std@@@std@@V?$allocator@V?$unique_ptr@VAudioConverter@webrtc@@U?$default_delete@VAudioConverter@webrtc@@@std@@@std@@@2@@std@@@Z
    ??0Config@webrtc@@QAE@XZ
    ??0ConsistentFilterDetector@FilterAnalyzer@webrtc@@QAE@ABUEchoCanceller3Config@2@@Z
    ??0CritScope@rtc@@QAE@PBVCriticalSection@1@@Z
    ??0CriticalSection@rtc@@QAE@XZ
    ??0DbMetric@EchoRemoverMetrics@webrtc@@QAE@MMM@Z
    ??0DbMetric@EchoRemoverMetrics@webrtc@@QAE@XZ
    ??0Decimator@webrtc@@QAE@I@Z
    ??0Delay@EchoCanceller3Config@webrtc@@QAE@ABU012@@Z
    ??0Delay@EchoCanceller3Config@webrtc@@QAE@XZ
    ??0DivergentFilterFraction@webrtc@@QAE@XZ
    ??0DominantNearendDetector@SuppressionGain@webrtc@@QAE@UDominantNearendDetection@Suppressor@EchoCanceller3Config@2@@Z
    ??0DownSampler@webrtc@@QAE@PAVApmDataDumper@1@@Z
    ??0DownsampledRenderBuffer@webrtc@@QAE@I@Z
    ??0EarlyReverbLengthEstimator@ReverbDecayEstimator@webrtc@@QAE@H@Z
    ??0EchoAudibility@webrtc@@QAE@_N@Z
    ??0EchoCancellationImpl@webrtc@@QAE@XZ
    ??0EchoCanceller3@webrtc@@QAE@ABUEchoCanceller3Config@1@H_N@Z
    ??0EchoCanceller3@webrtc@@QAE@ABUEchoCanceller3Config@1@H_NV?$unique_ptr@VBlockProcessor@webrtc@@U?$default_delete@VBlockProcessor@webrtc@@@std@@@std@@@Z
    ??0EchoCanceller3Config@webrtc@@QAE@ABU01@@Z
    ??0EchoCanceller3Config@webrtc@@QAE@XZ
    ??0EchoControlMobileImpl@webrtc@@QAE@XZ
    ??0EchoModel@EchoCanceller3Config@webrtc@@QAE@ABU012@@Z
    ??0EchoModel@EchoCanceller3Config@webrtc@@QAE@XZ
    ??0EchoPathDelayEstimator@webrtc@@QAE@PAVApmDataDumper@1@ABUEchoCanceller3Config@1@@Z
    ??0EchoPathVariability@webrtc@@QAE@_NW4DelayAdjustment@01@0@Z
    ??0EchoRemoverMetrics@webrtc@@QAE@XZ
    ??0ErlEstimator@webrtc@@QAE@I@Z
    ??0ErleEstimator@webrtc@@QAE@IABUEchoCanceller3Config@1@@Z
    ??0ErleInstantaneous@FullBandErleEstimator@webrtc@@QAE@XZ
    ??0Event@rtc@@QAE@XZ
    ??0Event@rtc@@QAE@_N0@Z
    ??0FIRFilterC@webrtc@@QAE@PBMI@Z
    ??0FIRFilterSSE2@webrtc@@QAE@PBMII@Z
    ??0FeaturesExtractor@rnn_vad@webrtc@@QAE@XZ
    ??0FftBuffer@webrtc@@QAE@I@Z
    ??0FilterAnalyzer@webrtc@@QAE@ABUEchoCanceller3Config@1@@Z
    ??0FilterDelay@AecState@webrtc@@QAE@ABUEchoCanceller3Config@2@@Z
    ??0FilteringQualityAnalyzer@AecState@webrtc@@QAE@ABUEchoCanceller3Config@2@@Z
    ??0FixedDigitalLevelEstimator@webrtc@@QAE@IPAVApmDataDumper@1@@Z
    ??0FrameBlocker@webrtc@@QAE@I@Z
    ??0FrameExtender@SignalClassifier@webrtc@@QAE@II@Z
    ??0FullBandErleEstimator@webrtc@@QAE@MM@Z
    ??0FullyConnectedLayer@rnn_vad@webrtc@@QAE@IIV?$ArrayView@$$CBC$0?BCGH@@rtc@@0Q6AMM@Z@Z
    ??0GainApplier@webrtc@@QAE@_NM@Z
    ??0GainControlForExperimentalAgc@webrtc@@QAE@PAVGainControl@1@PAVCriticalSection@rtc@@@Z
    ??0GainControlImpl@webrtc@@QAE@PAVCriticalSection@rtc@@@Z
    ??0GainController2@webrtc@@QAE@XZ
    ??0GainController@GainControlImpl@webrtc@@QAE@XZ
    ??0GainParameters@SuppressionGain@webrtc@@QAE@ABUTuning@Suppressor@EchoCanceller3Config@2@@Z
    ??0GatedRecurrentLayer@rnn_vad@webrtc@@QAE@IIV?$ArrayView@$$CBC$0?BCGH@@rtc@@00Q6AMM@Z@Z
    ??0GlobalLock@rtc@@QAE@XZ
    ??0GlobalLockScope@rtc@@QAE@PAVGlobalLockPod@1@@Z
    ??0HdrMasteringMetadata@webrtc@@QAE@XZ
    ??0HdrMetadata@webrtc@@QAE@XZ
    ??0I420Buffer@webrtc@@IAE@HH@Z
    ??0I420Buffer@webrtc@@IAE@HHHHH@Z
    ??0I420BufferPool@webrtc@@QAE@XZ
    ??0I420BufferPool@webrtc@@QAE@_N@Z
    ??0I420BufferPool@webrtc@@QAE@_NI@Z
    ??0IFChannelBuffer@webrtc@@QAE@III@Z
    ??0InitialState@AecState@webrtc@@QAE@ABUEchoCanceller3Config@2@@Z
    ??0InternalAPMConfig@webrtc@@QAE@$$QAU01@@Z
    ??0InternalAPMConfig@webrtc@@QAE@ABU01@@Z
    ??0InternalAPMConfig@webrtc@@QAE@XZ
    ??0InterpolatedGainCurve@webrtc@@QAE@PAVApmDataDumper@1@V?$basic_string@DU?$char_traits@D@std@@V?$allocator@D@2@@std@@@Z
    ??0Jitter@ApiCallJitterMetrics@webrtc@@QAE@XZ
    ??0KissFft@rnnoise@@QAE@H@Z
    ??0KissFftState@KissFft@rnnoise@@QAE@H@Z
    ??0LegacyFilteringQualityAnalyzer@AecState@webrtc@@QAE@ABUEchoCanceller3Config@2@@Z
    ??0LegacySaturationDetector@AecState@webrtc@@QAE@ABUEchoCanceller3Config@2@@Z
    ??0LevelEstimatorImpl@webrtc@@QAE@PAVCriticalSection@rtc@@@Z
    ??0Limiter@webrtc@@QAE@IPAVApmDataDumper@1@V?$basic_string@DU?$char_traits@D@std@@V?$allocator@D@2@@std@@@Z
    ??0LockedIsacBandwidthInfo@webrtc@@QAE@XZ
    ??0LogMessage@rtc@@QAE@PBDHW4LoggingSeverity@1@@Z
    ??0LogMessage@rtc@@QAE@PBDHW4LoggingSeverity@1@ABV?$basic_string@DU?$char_traits@D@std@@V?$allocator@D@2@@std@@@Z
    ??0LogMessage@rtc@@QAE@PBDHW4LoggingSeverity@1@W4LogErrorContext@1@H@Z
    ??0LoudnessHistogram@webrtc@@AAE@H@Z
    ??0LoudnessHistogram@webrtc@@AAE@XZ
    ??0LowCutFilter@webrtc@@QAE@IH@Z
    ??0MJpegDecoder@libyuv@@QAE@XZ
    ??0MainFilterUpdateGain@webrtc@@QAE@ABUMainConfiguration@Filter@EchoCanceller3Config@1@I@Z
    ??0MaskingThresholds@Suppressor@EchoCanceller3Config@webrtc@@QAE@ABU0123@@Z
    ??0MaskingThresholds@Suppressor@EchoCanceller3Config@webrtc@@QAE@MMM@Z
    ??0MatchedFilter@webrtc@@QAE@PAVApmDataDumper@1@W4Aec3Optimization@1@IIHIMMM@Z
    ??0MatchedFilterLagAggregator@webrtc@@QAE@PAVApmDataDumper@1@IABUDelaySelectionThresholds@Delay@EchoCanceller3Config@1@@Z
    ??0MatrixBuffer@webrtc@@QAE@III@Z
    ??0MovingAverage@aec3@webrtc@@QAE@II@Z
    ??0MovingMax@webrtc@@QAE@I@Z
    ??0MovingMoments@webrtc@@QAE@I@Z
    ??0NoiseLevelEstimator@webrtc@@QAE@PAVApmDataDumper@1@@Z
    ??0NoiseSpectrum@StationarityEstimator@webrtc@@QAE@XZ
    ??0NoiseSpectrumEstimator@webrtc@@QAE@PAVApmDataDumper@1@@Z
    ??0NoiseSuppressionImpl@webrtc@@QAE@PAVCriticalSection@rtc@@@Z
    ??0NoiseSuppressionProxy@webrtc@@QAE@PAVAudioProcessing@1@PAVNoiseSuppression@1@@Z
    ??0OouraFft@webrtc@@QAE@XZ
    ??0PeakEnveloper@SaturationProtector@webrtc@@QAE@XZ
    ??0PitchBasedVad@webrtc@@QAE@XZ
    ??0PitchEstimator@rnn_vad@webrtc@@QAE@XZ
    ??0PlatformThread@rtc@@QAE@P6AXPAX@Z0Vstring_view@absl@@W4ThreadPriority@1@@Z
    ??0PlatformThread@rtc@@QAE@P6A_NPAX@Z0Vstring_view@absl@@@Z
    ??0PoleZeroFilter@webrtc@@AAE@PBMI0I@Z
    ??0PowerLevel@webrtc@@QAE@XZ
    ??0PushSincResampler@webrtc@@QAE@II@Z
    ??0RaceChecker@rtc@@QAE@XZ
    ??0RaceCheckerScope@internal@rtc@@QAE@PBVRaceChecker@2@@Z
    ??0RealFourierOoura@webrtc@@QAE@H@Z
    ??0RegionLogger@InterpolatedGainCurve@webrtc@@QAE@V?$basic_string@DU?$char_traits@D@std@@V?$allocator@D@2@@std@@000@Z
    ??0RenderBuffer@webrtc@@QAE@PAUMatrixBuffer@1@PAUVectorBuffer@1@PAUFftBuffer@1@@Z
    ??0RenderDelayControllerMetrics@webrtc@@QAE@XZ
    ??0RenderReverbModel@webrtc@@QAE@XZ
    ??0RenderSignalAnalyzer@webrtc@@QAE@ABUEchoCanceller3Config@1@@Z
    ??0RenderWriter@EchoCanceller3@webrtc@@QAE@PAVApmDataDumper@2@PAV?$SwapQueue@V?$vector@V?$vector@MV?$allocator@M@std@@@std@@V?$allocator@V?$vector@MV?$allocator@M@std@@@std@@@2@@std@@VAec3RenderQueueItemVerifier@webrtc@@@2@V?$unique_ptr@VCascadedBiQuadFilter@webrtc@@U?$default_delete@VCascadedBiQuadFilter@webrtc@@@std@@@std@@HHH@Z
    ??0ResampleConverter@webrtc@@QAE@IIII@Z
    ??0Resampler@webrtc@@QAE@HHI@Z
    ??0Resampler@webrtc@@QAE@XZ
    ??0ResidualEchoDetector@webrtc@@QAE@XZ
    ??0ResidualEchoEstimator@webrtc@@QAE@ABUEchoCanceller3Config@1@@Z
    ??0ReverbDecayEstimator@webrtc@@QAE@ABUEchoCanceller3Config@1@@Z
    ??0ReverbFrequencyResponse@webrtc@@QAE@XZ
    ??0ReverbModel@webrtc@@QAE@XZ
    ??0ReverbModelEstimator@webrtc@@QAE@ABUEchoCanceller3Config@1@@Z
    ??0ReverbModelFallback@webrtc@@QAE@I@Z
    ??0RmsLevel@webrtc@@QAE@XZ
    ??0RnnBasedVad@rnn_vad@webrtc@@QAE@XZ
    ??0RuntimeSettingEnqueuer@AudioProcessingImpl@webrtc@@QAE@PAV?$SwapQueue@VRuntimeSetting@AudioProcessing@webrtc@@V?$SwapQueueItemVerifier@VRuntimeSetting@AudioProcessing@webrtc@@$1??$NoopSwapQueueItemVerifierFunction@VRuntimeSetting@AudioProcessing@webrtc@@@internal@3@YA_NABV123@@Z@3@@2@@Z
    ??0SampleInfo@metrics@webrtc@@QAE@ABV?$basic_string@DU?$char_traits@D@std@@V?$allocator@D@2@@std@@HHI@Z
    ??0SaturationProtector@webrtc@@QAE@PAVApmDataDumper@1@@Z
    ??0SaturationProtector@webrtc@@QAE@PAVApmDataDumper@1@M@Z
    ??0ShadowFilterUpdateGain@webrtc@@QAE@ABUShadowConfiguration@Filter@EchoCanceller3Config@1@I@Z
    ??0SignalClassifier@webrtc@@QAE@PAVApmDataDumper@1@@Z
    ??0SignalDependentErleEstimator@webrtc@@QAE@ABUEchoCanceller3Config@1@@Z
    ??0SignalWithLevels@webrtc@@QAE@ABU01@@Z
    ??0SignalWithLevels@webrtc@@QAE@V?$AudioFrameView@M@1@@Z
    ??0SimpleStringBuilder@rtc@@QAE@V?$ArrayView@D$0?BCGH@@1@@Z
    ??0SincResampler@webrtc@@QAE@NIPAVSincResamplerCallback@1@@Z
    ??0SkewEstimator@webrtc@@QAE@I@Z
    ??0SmoothingFilterImpl@webrtc@@QAE@H@Z
    ??0SparseFIRFilter@webrtc@@QAE@PBMIII@Z
    ??0SpectralFeaturesExtractor@rnn_vad@webrtc@@QAE@XZ
    ??0SpectralFeaturesView@rnn_vad@webrtc@@QAE@ABV012@@Z
    ??0SpectralFeaturesView@rnn_vad@webrtc@@QAE@V?$ArrayView@M$0BA@@rtc@@V?$ArrayView@M$05@4@111PAM@Z
    ??0StandaloneVad@webrtc@@AAE@PAUWebRtcVadInst@@@Z
    ??0StationarityEstimator@webrtc@@QAE@XZ
    ??0SubbandErleEstimator@webrtc@@QAE@ABUEchoCanceller3Config@1@@Z
    ??0Subtractor@webrtc@@QAE@ABUEchoCanceller3Config@1@PAVApmDataDumper@1@W4Aec3Optimization@1@@Z
    ??0SubtractorOutput@webrtc@@QAE@XZ
    ??0SubtractorOutputAnalyzer@webrtc@@QAE@XZ
    ??0SuppressionFilter@webrtc@@QAE@W4Aec3Optimization@1@H@Z
    ??0SuppressionGain@webrtc@@QAE@ABUEchoCanceller3Config@1@W4Aec3Optimization@1@H@Z
    ??0Suppressor@EchoCanceller3Config@webrtc@@QAE@ABU012@@Z
    ??0Suppressor@EchoCanceller3Config@webrtc@@QAE@XZ
    ??0Suppressor@NoiseSuppressionImpl@webrtc@@QAE@H@Z
    ??0ThreadCheckerImpl@rtc@@QAE@XZ
    ??0ThreeBandFilterBank@webrtc@@QAE@I@Z
    ??0TimestampWrapAroundHandler@rtc@@QAE@XZ
    ??0TimingFrameInfo@webrtc@@QAE@XZ
    ??0TransientDetector@webrtc@@QAE@H@Z
    ??0TransientSuppressor@webrtc@@QAE@XZ
    ??0TransparentMode@AecState@webrtc@@QAE@ABUEchoCanceller3Config@2@@Z
    ??0TryCritScope@rtc@@QAE@PBVCriticalSection@1@@Z
    ??0Tuning@Suppressor@EchoCanceller3Config@webrtc@@QAE@ABU0123@@Z
    ??0Tuning@Suppressor@EchoCanceller3Config@webrtc@@QAE@UMaskingThresholds@123@0MM@Z
    ??0TypingDetection@webrtc@@QAE@XZ
    ??0Vad@VoiceDetectionImpl@webrtc@@QAE@XZ
    ??0VadAudioProc@webrtc@@QAE@XZ
    ??0VadCircularBuffer@webrtc@@AAE@H@Z
    ??0VadWithLevel@webrtc@@QAE@XZ
    ??0VectorBuffer@webrtc@@QAE@II@Z
    ??0VideoDenoiser@webrtc@@QAE@_N@Z
    ??0VideoFrame@webrtc@@AAE@GABV?$scoped_refptr@VVideoFrameBuffer@webrtc@@@rtc@@_JI1W4VideoRotation@1@ABV?$optional@VColorSpace@webrtc@@@absl@@ABV?$optional@UUpdateRect@VideoFrame@webrtc@@@6@@Z
    ??0VideoFrame@webrtc@@QAE@$$QAV01@@Z
    ??0VideoFrame@webrtc@@QAE@ABV01@@Z
    ??0VideoFrame@webrtc@@QAE@ABV?$scoped_refptr@VVideoFrameBuffer@webrtc@@@rtc@@I_JW4VideoRotation@1@@Z
    ??0VideoFrame@webrtc@@QAE@ABV?$scoped_refptr@VVideoFrameBuffer@webrtc@@@rtc@@W4VideoRotation@1@_J@Z
    ??0VideoSinkWants@rtc@@QAE@ABU01@@Z
    ??0VideoSinkWants@rtc@@QAE@XZ
    ??0VoiceActivityDetector@webrtc@@QAE@XZ
    ??0VoiceDetectionImpl@webrtc@@QAE@PAVCriticalSection@rtc@@@Z
    ??0WPDNode@webrtc@@QAE@IPBMI@Z
    ??0WPDTree@webrtc@@QAE@IPBM0IH@Z
    ??0WavReader@webrtc@@QAE@ABV?$basic_string@DU?$char_traits@D@std@@V?$allocator@D@2@@std@@@Z
    ??0WavReader@webrtc@@QAE@PAX@Z
    ??0WavWriter@webrtc@@QAE@ABV?$basic_string@DU?$char_traits@D@std@@V?$allocator@D@2@@std@@HI@Z
    ??0WavWriter@webrtc@@QAE@PAXHI@Z
    ??1?$AudioDecoderIsacT@UIsacFloat@webrtc@@@webrtc@@UAE@XZ
    ??1?$AudioEncoderIsacT@UIsacFloat@webrtc@@@webrtc@@UAE@XZ
    ??1?$PushResampler@F@webrtc@@UAE@XZ
    ??1?$PushResampler@M@webrtc@@UAE@XZ
    ??1?$_Tree@V?$_Tmap_traits@HHU?$less@H@std@@V?$allocator@U?$pair@$$CBHH@std@@@2@$0A@@std@@@std@@QAE@XZ
    ??1?$_Tree@V?$_Tmap_traits@W4ConfigOptionID@webrtc@@PAUBaseOption@Config@2@U?$less@W4ConfigOptionID@webrtc@@@std@@V?$allocator@U?$pair@$$CBW4ConfigOptionID@webrtc@@PAUBaseOption@Config@2@@std@@@6@$0A@@std@@@std@@QAE@XZ
    ??1?$pair@$$CBV?$basic_string@DU?$char_traits@D@std@@V?$allocator@D@2@@std@@V?$unique_ptr@USampleInfo@metrics@webrtc@@U?$default_delete@USampleInfo@metrics@webrtc@@@std@@@2@@std@@QAE@XZ
    ??1?$unique_ptr@UApmPrivateSubmodules@AudioProcessingImpl@webrtc@@U?$default_delete@UApmPrivateSubmodules@AudioProcessingImpl@webrtc@@@std@@@std@@QAE@XZ
    ??1?$unique_ptr@UApmPublicSubmodules@AudioProcessingImpl@webrtc@@U?$default_delete@UApmPublicSubmodules@AudioProcessingImpl@webrtc@@@std@@@std@@QAE@XZ
    ??1?$unique_ptr@V?$ChannelBuffer@F@webrtc@@U?$default_delete@V?$ChannelBuffer@F@webrtc@@@std@@@std@@QAE@XZ
    ??1?$unique_ptr@V?$ChannelBuffer@M@webrtc@@U?$default_delete@V?$ChannelBuffer@M@webrtc@@@std@@@std@@QAE@XZ
    ??1?$unique_ptr@VAdaptiveAgc@webrtc@@U?$default_delete@VAdaptiveAgc@webrtc@@@std@@@std@@QAE@XZ
    ??1?$unique_ptr@VAgcManagerDirect@webrtc@@U?$default_delete@VAgcManagerDirect@webrtc@@@std@@@std@@QAE@XZ
    ??1?$unique_ptr@VApmDataDumper@webrtc@@U?$default_delete@VApmDataDumper@webrtc@@@std@@@std@@QAE@XZ
    ??1?$unique_ptr@VCanceller@EchoCancellationImpl@webrtc@@U?$default_delete@VCanceller@EchoCancellationImpl@webrtc@@@std@@@std@@QAE@XZ
    ??1?$unique_ptr@VCanceller@EchoControlMobileImpl@webrtc@@U?$default_delete@VCanceller@EchoControlMobileImpl@webrtc@@@std@@@std@@QAE@XZ
    ??1?$unique_ptr@VCascadedBiQuadFilter@webrtc@@U?$default_delete@VCascadedBiQuadFilter@webrtc@@@std@@@std@@QAE@XZ
    ??1?$unique_ptr@VEchoCancellationImpl@webrtc@@U?$default_delete@VEchoCancellationImpl@webrtc@@@std@@@std@@QAE@XZ
    ??1?$unique_ptr@VEchoControlMobileImpl@webrtc@@U?$default_delete@VEchoControlMobileImpl@webrtc@@@std@@@std@@QAE@XZ
    ??1?$unique_ptr@VFrameExtender@SignalClassifier@webrtc@@U?$default_delete@VFrameExtender@SignalClassifier@webrtc@@@std@@@std@@QAE@XZ
    ??1?$unique_ptr@VGainController2@webrtc@@U?$default_delete@VGainController2@webrtc@@@std@@@std@@QAE@XZ
    ??1?$unique_ptr@VGainController@GainControlImpl@webrtc@@U?$default_delete@VGainController@GainControlImpl@webrtc@@@std@@@std@@QAE@XZ
    ??1?$unique_ptr@VIFChannelBuffer@webrtc@@U?$default_delete@VIFChannelBuffer@webrtc@@@std@@@std@@QAE@XZ
    ??1?$unique_ptr@VLoudnessHistogram@webrtc@@U?$default_delete@VLoudnessHistogram@webrtc@@@std@@@std@@QAE@XZ
    ??1?$unique_ptr@VLowCutFilter@webrtc@@U?$default_delete@VLowCutFilter@webrtc@@@std@@@std@@QAE@XZ
    ??1?$unique_ptr@VMovingMoments@webrtc@@U?$default_delete@VMovingMoments@webrtc@@@std@@@std@@QAE@XZ
    ??1?$unique_ptr@VReverbModel@webrtc@@U?$default_delete@VReverbModel@webrtc@@@std@@@std@@QAE@XZ
    ??1?$unique_ptr@VReverbModelFallback@webrtc@@U?$default_delete@VReverbModelFallback@webrtc@@@std@@@std@@QAE@XZ
    ??1?$unique_ptr@VRmsLevel@webrtc@@U?$default_delete@VRmsLevel@webrtc@@@std@@@std@@QAE@XZ
    ??1?$unique_ptr@VSparseFIRFilter@webrtc@@U?$default_delete@VSparseFIRFilter@webrtc@@@std@@@std@@QAE@XZ
    ??1?$unique_ptr@VSplittingFilter@webrtc@@U?$default_delete@VSplittingFilter@webrtc@@@std@@@std@@QAE@XZ
    ??1?$unique_ptr@VStandaloneVad@webrtc@@U?$default_delete@VStandaloneVad@webrtc@@@std@@@std@@QAE@XZ
    ??1?$unique_ptr@VSuppressor@NoiseSuppressionImpl@webrtc@@U?$default_delete@VSuppressor@NoiseSuppressionImpl@webrtc@@@std@@@std@@QAE@XZ
    ??1?$unique_ptr@VTransientDetector@webrtc@@U?$default_delete@VTransientDetector@webrtc@@@std@@@std@@QAE@XZ
    ??1?$unique_ptr@VTransientSuppressor@webrtc@@U?$default_delete@VTransientSuppressor@webrtc@@@std@@@std@@QAE@XZ
    ??1?$unique_ptr@VVad@VoiceDetectionImpl@webrtc@@U?$default_delete@VVad@VoiceDetectionImpl@webrtc@@@std@@@std@@QAE@XZ
    ??1?$unique_ptr@VVadCircularBuffer@webrtc@@U?$default_delete@VVadCircularBuffer@webrtc@@@std@@@std@@QAE@XZ
    ??1?$unique_ptr@VWPDNode@webrtc@@U?$default_delete@VWPDNode@webrtc@@@std@@@std@@QAE@XZ
    ??1?$unique_ptr@VWPDTree@webrtc@@U?$default_delete@VWPDTree@webrtc@@@std@@@std@@QAE@XZ
    ??1AdaptiveAgc@webrtc@@QAE@XZ
    ??1AdaptiveFirFilter@webrtc@@QAE@XZ
    ??1Aec@webrtc@@QAE@XZ
    ??1AecCore@webrtc@@QAE@XZ
    ??1AecState@webrtc@@QAE@XZ
    ??1Agc@webrtc@@UAE@XZ
    ??1AgcManagerDirect@webrtc@@QAE@XZ
    ??1ApmCaptureState@AudioProcessingImpl@webrtc@@QAE@XZ
    ??1ApmDataDumper@webrtc@@QAE@XZ
    ??1ApmPrivateSubmodules@AudioProcessingImpl@webrtc@@QAE@XZ
    ??1ApmRenderState@AudioProcessingImpl@webrtc@@QAE@XZ
    ??1AudioBuffer@webrtc@@UAE@XZ
    ??1AudioProcessingBuilder@webrtc@@QAE@XZ
    ??1AudioProcessingImpl@webrtc@@UAE@XZ
    ??1AudioProcessingStats@webrtc@@QAE@XZ
    ??1BandAnalysisFft@rnn_vad@webrtc@@QAE@XZ
    ??1BlockBuffer@webrtc@@QAE@XZ
    ??1BlockDelayBuffer@webrtc@@QAE@XZ
    ??1BlockFramer@webrtc@@QAE@XZ
    ??1Builder@VideoFrame@webrtc@@QAE@XZ
    ??1Canceller@EchoCancellationImpl@webrtc@@QAE@XZ
    ??1CascadedBiQuadFilter@webrtc@@QAE@XZ
    ??1CircularBuffer@webrtc@@QAE@XZ
    ??1ClockdriftDetector@webrtc@@QAE@XZ
    ??1ComfortNoiseGenerator@webrtc@@QAE@XZ
    ??1Config@webrtc@@QAE@XZ
    ??1CritScope@rtc@@QAE@XZ
    ??1CriticalSection@rtc@@QAE@XZ
    ??1DownsampledRenderBuffer@webrtc@@QAE@XZ
    ??1EarlyReverbLengthEstimator@ReverbDecayEstimator@webrtc@@QAE@XZ
    ??1EchoAudibility@webrtc@@QAE@XZ
    ??1EchoCancellationImpl@webrtc@@QAE@XZ
    ??1EchoCanceller3@webrtc@@UAE@XZ
    ??1EchoControlMobileImpl@webrtc@@QAE@XZ
    ??1EchoPathDelayEstimator@webrtc@@QAE@XZ
    ??1ErlEstimator@webrtc@@QAE@XZ
    ??1ErleEstimator@webrtc@@QAE@XZ
    ??1ErleInstantaneous@FullBandErleEstimator@webrtc@@QAE@XZ
    ??1Event@rtc@@QAE@XZ
    ??1FIRFilterC@webrtc@@UAE@XZ
    ??1FIRFilterSSE2@webrtc@@UAE@XZ
    ??1FeaturesExtractor@rnn_vad@webrtc@@QAE@XZ
    ??1FftBuffer@webrtc@@QAE@XZ
    ??1FilterAnalyzer@webrtc@@QAE@XZ
    ??1FrameBlocker@webrtc@@QAE@XZ
    ??1FrameExtender@SignalClassifier@webrtc@@QAE@XZ
    ??1FullBandErleEstimator@webrtc@@QAE@XZ
    ??1FullyConnectedLayer@rnn_vad@webrtc@@QAE@XZ
    ??1GainControlForExperimentalAgc@webrtc@@UAE@XZ
    ??1GainControlImpl@webrtc@@UAE@XZ
    ??1GainController2@webrtc@@QAE@XZ
    ??1GatedRecurrentLayer@rnn_vad@webrtc@@QAE@XZ
    ??1GlobalLockScope@rtc@@QAE@XZ
    ??1I420Buffer@webrtc@@MAE@XZ
    ??1I420BufferPool@webrtc@@QAE@XZ
    ??1IFChannelBuffer@webrtc@@QAE@XZ
    ??1InterpolatedGainCurve@webrtc@@QAE@XZ
    ??1KissFft@rnnoise@@QAE@XZ
    ??1KissFftState@KissFft@rnnoise@@QAE@XZ
    ??1LevelEstimatorImpl@webrtc@@UAE@XZ
    ??1Limiter@webrtc@@QAE@XZ
    ??1LockedIsacBandwidthInfo@webrtc@@QAE@XZ
    ??1LogMessage@rtc@@QAE@XZ
    ??1LoudnessHistogram@webrtc@@QAE@XZ
    ??1LowCutFilter@webrtc@@QAE@XZ
    ??1MJpegDecoder@libyuv@@QAE@XZ
    ??1MainFilterUpdateGain@webrtc@@QAE@XZ
    ??1MatchedFilter@webrtc@@QAE@XZ
    ??1MatchedFilterLagAggregator@webrtc@@QAE@XZ
    ??1MatrixBuffer@webrtc@@QAE@XZ
    ??1MovingAverage@aec3@webrtc@@QAE@XZ
    ??1MovingMax@webrtc@@QAE@XZ
    ??1MovingMoments@webrtc@@QAE@XZ
    ??1NoiseLevelEstimator@webrtc@@QAE@XZ
    ??1NoiseSpectrum@StationarityEstimator@webrtc@@QAE@XZ
    ??1NoiseSuppressionImpl@webrtc@@UAE@XZ
    ??1NoiseSuppressionProxy@webrtc@@UAE@XZ
    ??1OouraFft@webrtc@@QAE@XZ
    ??1PitchBasedVad@webrtc@@QAE@XZ
    ??1PitchEstimator@rnn_vad@webrtc@@QAE@XZ
    ??1PlatformThread@rtc@@UAE@XZ
    ??1PushSincResampler@webrtc@@UAE@XZ
    ??1RaceCheckerScope@internal@rtc@@QAE@XZ
    ??1RealFourierOoura@webrtc@@UAE@XZ
    ??1RegionLogger@InterpolatedGainCurve@webrtc@@QAE@XZ
    ??1RenderBuffer@webrtc@@QAE@XZ
    ??1RenderReverbModel@webrtc@@QAE@XZ
    ??1RenderSignalAnalyzer@webrtc@@QAE@XZ
    ??1RenderWriter@EchoCanceller3@webrtc@@QAE@XZ
    ??1Resampler@webrtc@@QAE@XZ
    ??1ResidualEchoDetector@webrtc@@UAE@XZ
    ??1ResidualEchoEstimator@webrtc@@QAE@XZ
    ??1ReverbDecayEstimator@webrtc@@QAE@XZ
    ??1ReverbFrequencyResponse@webrtc@@QAE@XZ
    ??1ReverbModel@webrtc@@QAE@XZ
    ??1ReverbModelEstimator@webrtc@@QAE@XZ
    ??1ReverbModelFallback@webrtc@@QAE@XZ
    ??1RmsLevel@webrtc@@QAE@XZ
    ??1RnnBasedVad@rnn_vad@webrtc@@QAE@XZ
    ??1RuntimeSettingEnqueuer@AudioProcessingImpl@webrtc@@QAE@XZ
    ??1SampleInfo@metrics@webrtc@@QAE@XZ
    ??1SignalClassifier@webrtc@@QAE@XZ
    ??1SignalDependentErleEstimator@webrtc@@QAE@XZ
    ??1SincResampler@webrtc@@UAE@XZ
    ??1SkewEstimator@webrtc@@QAE@XZ
    ??1SmoothingFilterImpl@webrtc@@UAE@XZ
    ??1SparseFIRFilter@webrtc@@QAE@XZ
    ??1SpectralFeaturesExtractor@rnn_vad@webrtc@@QAE@XZ
    ??1SpectralFeaturesView@rnn_vad@webrtc@@QAE@XZ
    ??1StandaloneVad@webrtc@@QAE@XZ
    ??1StationarityEstimator@webrtc@@QAE@XZ
    ??1SubbandErleEstimator@webrtc@@QAE@XZ
    ??1Subtractor@webrtc@@QAE@XZ
    ??1SubtractorOutput@webrtc@@QAE@XZ
    ??1SuppressionFilter@webrtc@@QAE@XZ
    ??1SuppressionGain@webrtc@@QAE@XZ
    ??1ThreadCheckerImpl@rtc@@QAE@XZ
    ??1ThreeBandFilterBank@webrtc@@QAE@XZ
    ??1TransientDetector@webrtc@@QAE@XZ
    ??1TransientSuppressor@webrtc@@QAE@XZ
    ??1TryCritScope@rtc@@QAE@XZ
    ??1TypingDetection@webrtc@@UAE@XZ
    ??1VadAudioProc@webrtc@@QAE@XZ
    ??1VadCircularBuffer@webrtc@@QAE@XZ
    ??1VadWithLevel@webrtc@@QAE@XZ
    ??1VectorBuffer@webrtc@@QAE@XZ
    ??1VideoDenoiser@webrtc@@QAE@XZ
    ??1VideoFrame@webrtc@@QAE@XZ
    ??1VideoSinkWants@rtc@@QAE@XZ
    ??1VoiceActivityDetector@webrtc@@QAE@XZ
    ??1VoiceDetectionImpl@webrtc@@UAE@XZ
    ??1WPDNode@webrtc@@QAE@XZ
    ??1WPDTree@webrtc@@QAE@XZ
    ??1WavReader@webrtc@@UAE@XZ
    ??1WavWriter@webrtc@@UAE@XZ
    ??1bad_optional_access@absl@@UAE@XZ
    ??4ColorSpace@webrtc@@QAEAAV01@ABV01@@Z
    ??4InternalAPMConfig@webrtc@@QAEAAU01@ABU01@@Z
    ??4VideoFrame@webrtc@@QAEAAV01@$$QAV01@@Z
    ??4VideoFrame@webrtc@@QAEAAV01@ABV01@@Z
    ??6SimpleStringBuilder@rtc@@QAEAAV01@ABV?$basic_string@DU?$char_traits@D@std@@V?$allocator@D@2@@std@@@Z
    ??6SimpleStringBuilder@rtc@@QAEAAV01@D@Z
    ??6SimpleStringBuilder@rtc@@QAEAAV01@H@Z
    ??6SimpleStringBuilder@rtc@@QAEAAV01@I@Z
    ??6SimpleStringBuilder@rtc@@QAEAAV01@J@Z
    ??6SimpleStringBuilder@rtc@@QAEAAV01@K@Z
    ??6SimpleStringBuilder@rtc@@QAEAAV01@M@Z
    ??6SimpleStringBuilder@rtc@@QAEAAV01@N@Z
    ??6SimpleStringBuilder@rtc@@QAEAAV01@O@Z
    ??6SimpleStringBuilder@rtc@@QAEAAV01@PBD@Z
    ??6SimpleStringBuilder@rtc@@QAEAAV01@_J@Z
    ??6SimpleStringBuilder@rtc@@QAEAAV01@_K@Z
    ??6StringBuilder@rtc@@QAEAAV01@H@Z
    ??6StringBuilder@rtc@@QAEAAV01@I@Z
    ??6StringBuilder@rtc@@QAEAAV01@J@Z
    ??6StringBuilder@rtc@@QAEAAV01@K@Z
    ??6StringBuilder@rtc@@QAEAAV01@M@Z
    ??6StringBuilder@rtc@@QAEAAV01@N@Z
    ??6StringBuilder@rtc@@QAEAAV01@O@Z
    ??6StringBuilder@rtc@@QAEAAV01@_J@Z
    ??6StringBuilder@rtc@@QAEAAV01@_K@Z
    ??8InternalAPMConfig@webrtc@@QAE_NABU01@@Z
    ??8ProcessingConfig@webrtc@@QBE_NABV01@@Z
    ??F?$_Tree_unchecked_const_iterator@V?$_Tree_val@U?$_Tree_simple_types@U?$pair@$$CBHH@std@@@std@@@std@@U_Iterator_base0@2@@std@@QAEAAV01@XZ
    ??F?$_Tree_unchecked_const_iterator@V?$_Tree_val@U?$_Tree_simple_types@U?$pair@$$CBV?$basic_string@DU?$char_traits@D@std@@V?$allocator@D@2@@std@@V?$unique_ptr@USampleInfo@metrics@webrtc@@U?$default_delete@USampleInfo@metrics@webrtc@@@std@@@2@@std@@@std@@@std@@U_Iterator_base0@2@@std@@QAEAAV01@XZ
    ??MTimingFrameInfo@webrtc@@QBE_NABU01@@Z
    ??NTimingFrameInfo@webrtc@@QBE_NABU01@@Z
    ??_7?$AudioDecoderIsacT@UIsacFloat@webrtc@@@webrtc@@6B@ DATA
    ??_7?$AudioEncoderIsacT@UIsacFloat@webrtc@@@webrtc@@6B@ DATA
    ??_7?$PushResampler@F@webrtc@@6B@ DATA
    ??_7?$PushResampler@M@webrtc@@6B@ DATA
    ??_7?$RefCountedObject@VAudioProcessingImpl@webrtc@@@rtc@@6B@ DATA
    ??_7?$RefCountedObject@VI420Buffer@webrtc@@@rtc@@6B@ DATA
    ??_7?$RefCountedObject@VResidualEchoDetector@webrtc@@@rtc@@6B@ DATA
    ??_7AdaptiveModeLevelEstimatorAgc@webrtc@@6B@ DATA
    ??_7Agc@webrtc@@6B@ DATA
    ??_7AudioBuffer@webrtc@@6B@ DATA
    ??_7AudioConverter@webrtc@@6B@ DATA
    ??_7AudioDecoder@webrtc@@6B@ DATA
    ??_7AudioEncoder@webrtc@@6B@ DATA
    ??_7AudioProcessing@webrtc@@6B@ DATA
    ??_7AudioProcessingImpl@webrtc@@6B@ DATA
    ??_7BlockProcessor@webrtc@@6B@ DATA
    ??_7CompositionConverter@webrtc@@6B@ DATA
    ??_7CopyConverter@webrtc@@6B@ DATA
    ??_7DenoiserFilter@webrtc@@6B@ DATA
    ??_7DenoiserFilterC@webrtc@@6B@ DATA
    ??_7DenoiserFilterSSE2@webrtc@@6B@ DATA
    ??_7DownmixConverter@webrtc@@6B@ DATA
    ??_7EchoCanceller3@webrtc@@6B@ DATA
    ??_7EchoControl@webrtc@@6B@ DATA
    ??_7EchoDetector@webrtc@@6B@ DATA
    ??_7EchoRemover@webrtc@@6B@ DATA
    ??_7FIRFilter@webrtc@@6B@ DATA
    ??_7FIRFilterC@webrtc@@6B@ DATA
    ??_7FIRFilterSSE2@webrtc@@6B@ DATA
    ??_7GainControl@webrtc@@6B@ DATA
    ??_7GainControlForExperimentalAgc@webrtc@@6BGainControl@1@@ DATA
    ??_7GainControlForExperimentalAgc@webrtc@@6BVolumeCallbacks@1@@ DATA
    ??_7GainControlImpl@webrtc@@6B@ DATA
    ??_7I420Buffer@webrtc@@6B@ DATA
    ??_7I420BufferInterface@webrtc@@6B@ DATA
    ??_7LevelEstimator@webrtc@@6B@ DATA
    ??_7LevelEstimatorImpl@webrtc@@6B@ DATA
    ??_7NoiseSuppression@webrtc@@6B@ DATA
    ??_7NoiseSuppressionImpl@webrtc@@6B@ DATA
    ??_7NoiseSuppressionProxy@webrtc@@6B@ DATA
    ??_7PlanarYuv8Buffer@webrtc@@6B@ DATA
    ??_7PlanarYuvBuffer@webrtc@@6B@ DATA
    ??_7PlatformThread@rtc@@6B@ DATA
    ??_7PushSincResampler@webrtc@@6B@ DATA
    ??_7ReadableWav@webrtc@@6B@ DATA
    ??_7RealFourier@webrtc@@6B@ DATA
    ??_7RealFourierOoura@webrtc@@6B@ DATA
    ??_7RefCountInterface@rtc@@6B@ DATA
    ??_7RenderDelayBuffer@webrtc@@6B@ DATA
    ??_7RenderDelayController@webrtc@@6B@ DATA
    ??_7ResampleConverter@webrtc@@6B@ DATA
    ??_7ResidualEchoDetector@webrtc@@6B@ DATA
    ??_7SincResampler@webrtc@@6B@ DATA
    ??_7SincResamplerCallback@webrtc@@6B@ DATA
    ??_7SmoothingFilter@webrtc@@6B@ DATA
    ??_7SmoothingFilterImpl@webrtc@@6B@ DATA
    ??_7TypingDetection@webrtc@@6B@ DATA
    ??_7UpmixConverter@webrtc@@6B@ DATA
    ??_7Vad@webrtc@@6B@ DATA
    ??_7VideoFrameBuffer@webrtc@@6B@ DATA
    ??_7VoiceDetection@webrtc@@6B@ DATA
    ??_7VoiceDetectionImpl@webrtc@@6B@ DATA
    ??_7VolumeCallbacks@webrtc@@6B@ DATA
    ??_7WavFile@webrtc@@6B@ DATA
    ??_7WavReader@webrtc@@6B@ DATA
    ??_7WavWriter@webrtc@@6B@ DATA
    ??_C@_00CNPNBAHC@?$AA@ DATA
    ??_C@_01CELHOKLL@?$HN?$AA@ DATA
    ??_C@_01CLKCMJKC@?5?$AA@ DATA
    ??_C@_01EEMJAFIK@?6?$AA@ DATA
    ??_C@_01HCONENDN@?$HL?$AA@ DATA
    ??_C@_01IHBHIGKO@?0?$AA@ DATA
    ??_C@_01JLIPDDHJ@?3?$AA@ DATA
    ??_C@_01KDCPPGHE@r?$AA@ DATA
    ??_C@_01LOCGONAA@?$AA?$AA@ DATA
    ??_C@_01NOFIACDB@w?$AA@ DATA
    ??_C@_01ODHLEDKK@?$CI?$AA@ DATA
    ??_C@_01OHGJGJJP@?$FL?$AA@ DATA
    ??_C@_01PKGAHCOL@?$CJ?$AA@ DATA
    ??_C@_02BBAHNLBA@?$CFp?$AA@ DATA
    ??_C@_02BEIEFPIG@?$CFg?$AA@ DATA
    ??_C@_02DKCKIIND@?$CFs?$AA@ DATA
    ??_C@_02DPKJAMEF@?$CFd?$AA@ DATA
    ??_C@_02GMHACPFF@?$CFu?$AA@ DATA
    ??_C@_02GMLFBBN@wb?$AA@ DATA
    ??_C@_02JDPG@rb?$AA@ DATA
    ??_C@_02JPEBCGCN@?5?$CC?$AA@ DATA
    ??_C@_02KCGCGHLG@?5?$HN?$AA@ DATA
    ??_C@_02KEGNLNML@?0?5?$AA@ DATA
    ??_C@_02LMMGGCAJ@?3?5?$AA@ DATA
    ??_C@_02NJNOFBBI@?$CFx?$AA@ DATA
    ??_C@_02NJPGOMH@?$CFf?$AA@ DATA
    ??_C@_02PBFOLPKM@?$FN?5?$AA@ DATA
    ??_C@_03BKGLPGCL@?$CFLg?$AA@ DATA
    ??_C@_03BOIJBMJM@?6?$CD?5?$AA@ DATA
    ??_C@_03EBBKOEBF@?$FN?$HN?6?$AA@ DATA
    ??_C@_03FGGLPHMO@RMS?$AA@ DATA
    ??_C@_03FKNCMABI@?$CFlu?$AA@ DATA
    ??_C@_03FNNLGIME@?$CFhu?$AA@ DATA
    ??_C@_03GIPIADLC@?$CC?3?5?$AA@ DATA
    ??_C@_03JALODAI@?$CFld?$AA@ DATA
    ??_C@_03LPPJIELD@?$CJ?3?5?$AA@ DATA
    ??_C@_03MCPBMLDJ@?5?3?5?$AA@ DATA
    ??_C@_03OACELNE@?$CFhd?$AA@ DATA
    ??_C@_03ODDNMDIE@?$HN?0?5?$AA@ DATA
    ??_C@_03OMOEFKGE@?3?5?5?$AA@ DATA
    ??_C@_04BFAHMMK@?$CFlld?$AA@ DATA
    ??_C@_04BLABIENH@?5msa?$AA@ DATA
    ??_C@_04CAJPEBPP@fmt?5?$AA@ DATA
    ??_C@_04CGFJFPFD@none?$AA@ DATA
    ??_C@_04DOLPMGH@peak?$AA@ DATA
    ??_C@_04EPCGJKAP@RIFF?$AA@ DATA
    ??_C@_04FCIJFPNK@?$CFllu?$AA@ DATA
    ??_C@_04FNFOJHKJ@Agc2?$AA@ DATA
    ??_C@_04GMOANHBN@?5ms?4?$AA@ DATA
    ??_C@_04HFHJMNCD@WAVE?$AA@ DATA
    ??_C@_04LOAJBDKD@true?$AA@ DATA
    ??_C@_04MFGAIAKF@?5mmi?$AA@ DATA
    ??_C@_04NIDJFNBE@info?$AA@ DATA
    ??_C@_04OGHDAFPK@?$CC?$CFp?$CC?$AA@ DATA
    ??_C@_04PJOLNDGD@data?$AA@ DATA
    ??_C@_05GFCDIDHO@debug?$AA@ DATA
    ??_C@_05KACMIANE@4?43?40?$AA@ DATA
    ??_C@_05KKCIMGE@error?$AA@ DATA
    ??_C@_05LAPONLG@false?$AA@ DATA
    ??_C@_05NLJOFPED@?5neon?$AA@ DATA
    ??_C@_06BHPKFMDK@tstamp?$AA@ DATA
    ??_C@_06BMJAIEIG@state_?$AA@ DATA
    ??_C@_06CMIJOEBP@webrtc?$AA@ DATA
    ??_C@_06FJHNOCKE@thread?$AA@ DATA
    ??_C@_06LPLGMLP@screen?$AA@ DATA
    ??_C@_06NHEEBBKE@?5asimd?$AA@ DATA
    ??_C@_06OFJDLCDN@r?5?$DO?$DN?50?$AA@ DATA
    ??_C@_06OJHGLDPL@?$CInull?$CJ?$AA@ DATA
    ??_C@_07BIDCOMOC@buffer_?$AA@ DATA
    ??_C@_07DOAOMMKG@Enabled?$AA@ DATA
    ??_C@_07FPLKDJGL@warning?$AA@ DATA
    ??_C@_07HCNFGGKI@?5blocks?$AA@ DATA
    ??_C@_07KBAMPNJK@verbose?$AA@ DATA
    ??_C@_07MGAFMBBP@FATAL?$CI?$CJ?$AA@ DATA
    ??_C@_07NGGMPEEJ@Filter?5?$AA@ DATA
    ??_C@_07OIJBGDIF@handle_?$AA@ DATA
    ??_C@_07OMMBFLII@thread_?$AA@ DATA
    ??_C@_08BNNOFJJH@?$FL0x?$CF08X?$FN?$AA@ DATA
    ??_C@_08BPKGBPLK@realtime?$AA@ DATA
    ??_C@_08CLANBDND@Features?$AA@ DATA
    ??_C@_08NDHIPHJA@?5blocks?4?$AA@ DATA
    ??_C@_09CNJBHKGC@?$CJ?5failed?4?$AA@ DATA
    ??_C@_09GBBDPMGL@cpu?5model?$AA@ DATA
    ??_C@_09JJKKOMMO@enabled?3?5?$AA@ DATA
    ??_C@_09MDDCHJOP@?3?5start?3?5?$AA@ DATA
    ??_C@_0BA@DLJBICA@offset_row?5?$DO?$DN?50?$AA@ DATA
    ??_C@_0BA@GEDHPC@?$FL?$CFs?5?3?5?$CFd?$FN?5RAW?3?5?$AA@ DATA
    ??_C@_0BA@JFNIOLAK@string?5too?5long?$AA@ DATA
    ??_C@_0BA@LBIDGFNL@?5?$CI?$CFs?5vs?4?5?$CFs?$CJ?6?$CD?5?$AA@ DATA
    ??_C@_0BA@LDNHCEPH@EchoController?$DL?$AA@ DATA
    ??_C@_0BA@LOAACFMK@?0?5Reliability?3?5?$AA@ DATA
    ??_C@_0BA@LOCNHBIE@?0?5Render?5mean?3?5?$AA@ DATA
    ??_C@_0BA@NNNLIGCG@offset_col?5?$DO?$DN?50?$AA@ DATA
    ??_C@_0BB@BEEJPKOM@ASEs?5implemented?$AA@ DATA
    ??_C@_0BB@COLILCIM@?0?5Capture?5mean?3?5?$AA@ DATA
    ??_C@_0BB@GHGBOLBG@GainController2?$DL?$AA@ DATA
    ??_C@_0BB@MOGOBHAF@list?$DMT?$DO?5too?5long?$AA@ DATA
    ??_C@_0BB@ODMGMEOA@denominator?5?$DO?$DN?50?$AA@ DATA
    ??_C@_0BC@EAGCCAMD@Delay?5changed?5to?5?$AA@ DATA
    ??_C@_0BC@FDGKAECK@window?5?$CB?$DN?5nullptr?$AA@ DATA
    ??_C@_0BC@ILIJNFGG@EventLogger?3?3Stop?$AA@ DATA
    ??_C@_0BC@KBDMBKEH@deque?$DMT?$DO?5too?5long?$AA@ DATA
    ??_C@_0BC@LDAEAAHA@Can?8t?5close?5file?4?$AA@ DATA
    ??_C@_0BC@NJOCKLML@level_estimator?3?5?$AA@ DATA
    ??_C@_0BD@IKCJHKCO@EventTracingThread?$AA@ DATA
    ??_C@_0BD@MFCFCBH@EventLogger?3?3Start?$AA@ DATA
    ??_C@_0BD@OLBABOEK@vector?$DMT?$DO?5too?5long?$AA@ DATA
    ??_C@_0BDG@FDMEAHJC@0?5?$DN?$DN?5libyuv?3?3I420Rotate?$CI?5src?4Dat@ DATA
    ??_C@_0BE@BPOEBJM@AnalyzeCaptureAudio?$AA@ DATA
    ??_C@_0BE@CPHFPFLO@CreateThread?5failed?$AA@ DATA
    ??_C@_0BE@FHDADJJG@?$HL?5?$CCtraceEvents?$CC?3?5?$FL?6?$AA@ DATA
    ??_C@_0BE@HMAIHOBP@offset_col?5?$CF?52?5?$DN?$DN?50?$AA@ DATA
    ??_C@_0BE@JIEOECMP@offset_row?5?$CF?52?5?$DN?$DN?50?$AA@ DATA
    ??_C@_0BE@JONHPENG@map?1set?$DMT?$DO?5too?5long?$AA@ DATA
    ??_C@_0BE@LMOOKEAD@Bad?5optional?5access?$AA@ DATA
    ??_C@_0BE@PCABKAIK@adaptive_digital?3?5?$HL?$AA@ DATA
    ??_C@_0BF@IEHGNFNH@kWavFormat?5?$DN?$DN?5format?$AA@ DATA
    ??_C@_0BF@IGNLKNOH@0?5?$CB?$DN?5metric?9?$DOcounter?$AA@ DATA
    ??_C@_0BF@JIENCLMH@disabled?9by?9default?9?$AA@ DATA
    ??_C@_0BG@BHJALCMB@?0?5Last?5render?5power?3?5?$AA@ DATA
    ??_C@_0BG@BKBDJAOD@type?$CI?$CJ?5?$DN?$DN?5Type?3?3kI010?$AA@ DATA
    ??_C@_0BG@HEGHGDHP@optional?5has?5no?5value?$AA@ DATA
    ??_C@_0BG@JHDHLJON@type?$CI?$CJ?5?$DN?$DN?5Type?3?3kI420?$AA@ DATA
    ??_C@_0BG@PHNGAAFL@type?$CI?$CJ?5?$DN?$DN?5Type?3?3kI444?$AA@ DATA
    ??_C@_0BH@DHEONHDI@type?$CI?$CJ?5?$DN?$DN?5Type?3?3kI420A?$AA@ DATA
    ??_C@_0BH@EJKNAELA@?$FLInvalid?5CheckArgType?$FN?$AA@ DATA
    ??_C@_0BH@GJDCJAPN@aec3_subtractor_h_main?$AA@ DATA
    ??_C@_0BH@IGFBGMFK@?0?5Last?5capture?5power?3?5?$AA@ DATA
    ??_C@_0BH@ILIFACHH@num_samples?5?$DN?$DN?5written?$AA@ DATA
    ??_C@_0BH@KGIPKJGB@aec3_subtractor_H_main?$AA@ DATA
    ??_C@_0BH@OEPDCCBH@0?5?$CB?$DN?5metric?9?$DOhicounter?$AA@ DATA
    ??_C@_0BI@BBKHCKPP@num_samples_?5?$DO?$DN?5written?$AA@ DATA
    ??_C@_0BI@CFPLBAOH@invalid?5string?5position?$AA@ DATA
    ??_C@_0BI@DNCCEDIP@num_nonzero_coeffs?5?$DO?$DN?51?$AA@ DATA
    ??_C@_0BI@EOHJCPLN@?4?4?1?4?4?2rtc_base?1buffer?4h?$AA@ DATA
    ??_C@_0BI@NIBFENCO@?4?4?1?4?4?2rtc_base?1checks?4h?$AA@ DATA
    ??_C@_0BI@OFFJDDII@?4?4?1?4?4?1rtc_base?1event?4cc?$AA@ DATA
    ??_C@_0BI@PBKMJLIE@converters_?4size?$CI?$CJ?5?$DO?$DN?52?$AA@ DATA
    ??_C@_0BJ@DJPKPKCC@Applying?5total?5delay?5of?5?$AA@ DATA
    ??_C@_0BJ@DNMLBLFE@aec3_subtractor_h_shadow?$AA@ DATA
    ??_C@_0BJ@GFBNPFCG@WebRTC?4Audio?4AgcSetLevel?$AA@ DATA
    ??_C@_0BJ@HKGPALDC@Unsupported?5sample?5rate?5?$AA@ DATA
    ??_C@_0BJ@IMGICBKJ@enable_limiter?$CI?$CJ?5failed?4?$AA@ DATA
    ??_C@_0BJ@LPDKJJPH@aec3_subtractor_H_shadow?$AA@ DATA
    ??_C@_0BJ@NMJJDEHH@set_compression_gain_db?$CI?$AA@ DATA
    ??_C@_0BK@BMEAJHHG@fixed_digital?3?5?$HLgain_db?3?5?$AA@ DATA
    ??_C@_0BK@JDNAEKNL@Pre?9amplifier?5activated?3?5?$AA@ DATA
    ??_C@_0BK@KLLCPDGC@0?5?$DN?$DN?5fclose?$CIfile_handle_?$CJ?$AA@ DATA
    ??_C@_0BK@MNKKFKIA@Cannot?5find?5?8fmt?5?8?5chunk?4?$AA@ DATA
    ??_C@_0BK@NJIEMONE@Cannot?5find?5?8data?8?5chunk?4?$AA@ DATA
    ??_C@_0BK@OINNEJMH@0?5?$DN?$DN?5T?3?3Free?$CIisac_state_?$CJ?$AA@ DATA
    ??_C@_0BK@ONPLCGLH@Cannot?5read?5?8fmt?5?8?5chunk?4?$AA@ DATA
    ??_C@_0BK@PEFLPAGE@crop_width?5?$DM?$DN?5src?4width?$CI?$CJ?$AA@ DATA
    ??_C@_0BL@IPBHGFE@Encode?5failed?5?$CIerror?5code?5?$AA@ DATA
    ??_C@_0BM@DGJLKMHN@Available?5number?5of?5cores?3?5?$AA@ DATA
    ??_C@_0BM@GEPKGBHJ@AgcClippingLevelExperiment?$DL?$AA@ DATA
    ??_C@_0BM@GFMAOGEB@Failed?5to?5open?5trace?5file?5?8?$AA@ DATA
    ??_C@_0BM@IPGHEPDD@Highpass?5filter?5activated?3?5?$AA@ DATA
    ??_C@_0BM@LEFHGNKF@crop_height?5?$DM?$DN?5src?4height?$CI?$CJ?$AA@ DATA
    ??_C@_0BM@LPIEPLAB@source_available_?5?$DN?$DN?5frames?$AA@ DATA
    ??_C@_0BM@OBBPKBKD@extra_saturation_margin_db?3?$AA@ DATA
    ??_C@_0BN@CPDINMNB@0?5?$DN?$DN?5T?3?3Create?$CI?$CGisac_state_?$CJ?$AA@ DATA
    ??_C@_0BN@DFJIGM@Capture?5analyzer?5activated?3?5?$AA@ DATA
    ??_C@_0BN@JAPAMCGN@WebRtcVad_Init?$CIhandle_?$CJ?5?$DN?$DN?50?$AA@ DATA
    ??_C@_0BN@JLHOOMCH@?5is?5not?5evenly?5divisible?5by?5?$AA@ DATA
    ??_C@_0BO@DOJKAGDA@?0?5Render?5standard?5deviation?3?5?$AA@ DATA
    ??_C@_0BO@EKOFDNEL@length?5?$DM?$DN?5kMaxDataSizeSamples?$AA@ DATA
    ??_C@_0BO@HLLPKKJI@Gain?5Controller?52?5activated?3?5?$AA@ DATA
    ??_C@_0BO@NNCDECOF@?4?4?1?4?4?1common_audio?1vad?1vad?4cc?$AA@ DATA
    ??_C@_0BP@CJFMGPPN@Gain?5change?5detected?5at?5block?5?$AA@ DATA
    ??_C@_0BP@DDGKMHCH@?4?4?1?4?4?1common_audio?1wav_file?4cc?$AA@ DATA
    ??_C@_0BP@DPFIOHBD@?4?4?1?4?4?1api?1video?1video_frame?4cc?$AA@ DATA
    ??_C@_0BP@FHGIEGCD@ICreateAudioProcess?3?5obj?$DN?5?$CFx?5?6?$AA@ DATA
    ??_C@_0BP@GLLDMPKB@ICreateVideoDenoise?3?5obj?$DN?5?$CFx?5?6?$AA@ DATA
    ??_C@_0BP@HFMGAGCE@read?5?$DM?$DN?5num_samples_remaining_?$AA@ DATA
    ??_C@_0BP@HIJNLPI@0?5?$DN?$DN?5fseek?$CIfile_handle_?0?50?0?50?$CJ?$AA@ DATA
    ??_C@_0BP@HNPCDEDL@video_frame_buffer_?5?$CB?$DN?5nullptr?$AA@ DATA
    ??_C@_0BP@JBBLDBDH@?4?4?1?4?4?1api?1video?1i420_buffer?4cc?$AA@ DATA
    ??_C@_0BP@JFEIMCLN@?4?4?1?4?4?1rtc_base?1event_tracer?4cc?$AA@ DATA
    ??_C@_0BP@KEHMOMPG@?4?4?1?4?4?1api?1audio?1audio_frame?4cc?$AA@ DATA
    ??_C@_0BP@LHDJCHCJ@?0?5Capture_standard?5deviation?3?5?$AA@ DATA
    ??_C@_0CA@FJLFJJNN@set_target_level_dbfs?$CI?$CJ?5failed?4?$AA@ DATA
    ??_C@_0CA@FLGGDBCP@ICreateAudioProcess?3?5data?$DN?5?$CFx?5?6?$AA@ DATA
    ??_C@_0CA@GHJPBLPB@WebRTC?4Audio?4AecSystemDelayJump?$AA@ DATA
    ??_C@_0CB@EPGKICLO@?4?4?1?4?4?1common_audio?1wav_header?4cc@ DATA
    ??_C@_0CB@IKONPLEL@written_elements?5?$DM?$DN?5max_elements@ DATA
    ??_C@_0CC@BGANIOIM@?4?4?1?4?4?1rtc_base?1platform_thread?4c@ DATA
    ??_C@_0CC@GBLJDKHK@in_buffer_?4size?$CI?$CJ?5?$DN?$DN?5split_lengt@ DATA
    ??_C@_0CC@GDFLGIBB@?4FixedDigitalGainCurveRegion?4Kne@ DATA
    ??_C@_0CC@HJDPHFOC@Legacy?5AEC?$DLRefinedAdaptiveFilter@ DATA
    ??_C@_0CC@KDDPENNJ@?6Render?5pre?5processor?5activated?3@ DATA
    ??_C@_0CC@LLANPBML@set_compression_gain_db?$CI?$CJ?5failed@ DATA
    ??_C@_0CC@OGKFCDEI@sample_rate_hz_?5?$DN?$DN?5sample_rate_h@ DATA
    ??_C@_0CD@CKLPCHAF@?4?4?1?4?4?1common_audio?1real_fourier?4@ DATA
    ??_C@_0CD@HEGHHILK@WebRTC?9Aec3ShortHeadroomKillSwit@ DATA
    ??_C@_0CD@MBJGFIPA@WebRTC?4Audio?4EchoCanceller?4Erl?4M@ DATA
    ??_C@_0CD@NDBNLMJP@WebRTC?4Audio?4EchoCanceller?4Erl?4M@ DATA
    ??_C@_0CE@BBEIGBOG@?6Reverting?5to?5default?5parameter?5@ DATA
    ??_C@_0CE@BPDFCDKP@kBytesPerSample?5?$DN?$DN?5bytes_per_sam@ DATA
    ??_C@_0CE@CHGCOEMK@ICreateAudioProcess?3?5testp?$FL0?$FN?$DN?5?$CF@ DATA
    ??_C@_0CE@EGHFKJDD@?6Capture?5post?5processor?5activate@ DATA
    ??_C@_0CE@IEKPDGKI@WebRTC?4Audio?4Agc?4DigitalGainUpda@ DATA
    ??_C@_0CE@IODKFNKH@ICreateVideoDenoise?3?5testp?$FL0?$FN?$DN?5?$CF@ DATA
    ??_C@_0CE@LOPKACAH@WebRTC?4Audio?4Agc?4DigitalGainAppl@ DATA
    ??_C@_0CE@MFJLBPNM@WebRTC?4Audio?4EchoCanceller?4Erle?4@ DATA
    ??_C@_0CE@NHBAPLLD@WebRTC?4Audio?4EchoCanceller?4Erle?4@ DATA
    ??_C@_0CF@BBMIIBE@Could?5not?5open?5wav?5file?5for?5writ@ DATA
    ??_C@_0CF@BNPANNHI@?4FixedDigitalGainCurveRegion?4Lim@ DATA
    ??_C@_0CF@MINELNKG@WebRTC?4Audio?4EchoCanceller?4Erl?4V@ DATA
    ??_C@_0CF@MKIAMPFK@crop_width?5?$CL?5offset_x?5?$DM?$DN?5src?4wid@ DATA
    ??_C@_0CF@NMMLJJF@Could?5not?5open?5wav?5file?5for?5read@ DATA
    ??_C@_0CF@OFAKFJJA@WebRTC?4Audio?4Agc2?4DigitalGainApp@ DATA
    ??_C@_0CG@BBBNCGCH@?4FixedDigitalGainCurveRegion?4Ide@ DATA
    ??_C@_0CG@BILLFKHE@?4?4?1?4?4?1common_audio?1audio_convert@ DATA
    ??_C@_0CG@FMFPEFLE@WebRTC?4Audio?4EchoCanceller?4Erle?4@ DATA
    ??_C@_0CG@HAMJNEMP@WebRTC?4Audio?4EchoCanceller?4Clock@ DATA
    ??_C@_0CG@HBIGDJEH@WebRTC?4Audio?4NumOfAecSystemDelay@ DATA
    ??_C@_0CG@JAJGKDGK@WebRTC?4Audio?4Agc2?4EstimatedNoise@ DATA
    ??_C@_0CG@JDINHENH@?4?4?1?4?4?1api?1video?1video_frame_buff@ DATA
    ??_C@_0CG@NCHADFPL@Cannot?5enqueue?5a?5new?5runtime?5set@ DATA
    ??_C@_0CG@OMDIEHM@Could?5not?5open?5wav?5file?5for?5read@ DATA
    ??_C@_0CH@BIHNLMO@crop_height?5?$CL?5offset_y?5?$DM?$DN?5src?4he@ DATA
    ??_C@_0CH@EMDDKICL@WebRTC?4Audio?4EchoCanceller?4Filte@ DATA
    ??_C@_0CH@FPPLMBCG@file?5?$CB?$DN?5rtc?3?3kInvalidPlatformFil@ DATA
    ??_C@_0CH@HOMNDPGG@WebRTC?4Audio?4EchoCanceller?4Buffe@ DATA
    ??_C@_0CH@INGFNMAM@ICreateAudioProcess?3?5handle_size@ DATA
    ??_C@_0CH@JNNNEIOB@ICreateVideoDenoise?3?5handle_size@ DATA
    ??_C@_0CH@KJBJCDCM@?4?4?1?4?4?1common_audio?1window_genera@ DATA
    ??_C@_0CI@BKADABCH@WebRTC?4Audio?4EchoCanceller?4ErlBa@ DATA
    ??_C@_0CI@FLDBANDL@?8fmt?5?8?5chunk?5placed?5after?5?8data?8@ DATA
    ??_C@_0CI@FPLNCADN@?4FixedDigitalGainCurveRegion?4Sat@ DATA
    ??_C@_0CI@FPMHAGEH@WebRTC?4Audio?4EchoCanceller?4Activ@ DATA
    ??_C@_0CI@HBCENCHO@Excess?5render?5blocks?5detected?5at@ DATA
    ??_C@_0CI@IIIOFEI@WebRTC?4Audio?4EchoCanceller?4ErlBa@ DATA
    ??_C@_0CI@MDNEDGON@WebRTC?4Audio?4EchoCanceller?4ErlBa@ DATA
    ??_C@_0CI@NBFPNCIC@WebRTC?4Audio?4EchoCanceller?4ErlBa@ DATA
    ??_C@_0CI@NCKIPHIM@picture?4width?$CI?$CJ?5?$CL?5offset_col?5?$DM?$DN?5@ DATA
    ??_C@_0CI@NGLLPHGL@WebRTC?4Audio?4EchoCanceller?4Delay@ DATA
    ??_C@_0CI@OHJKIJAN@?4?4?1?4?4?1common_audio?1sparse_fir_fi@ DATA
    ??_C@_0CJ@DPABIEHP@WebRTC?9Aec3MinErleDuringOnsetsKi@ DATA
    ??_C@_0CJ@FHEPEBGG@WebRTC?4Audio?4EchoCanceller?4EchoP@ DATA
    ??_C@_0CJ@GIPCJEBF@WebRTC?4Audio?4EchoCanceller?4ErleB@ DATA
    ??_C@_0CJ@HKHJHAHK@WebRTC?4Audio?4EchoCanceller?4ErleB@ DATA
    ??_C@_0CJ@JKJIEBNL@Invalid?5file?4?5Could?5not?5create?5w@ DATA
    ??_C@_0CJ@KDKOEHLA@WebRTC?4Audio?4EchoCanceller?4ErleB@ DATA
    ??_C@_0CJ@KNGPJFCP@WebRTC?4Audio?4ApmCaptureInputLeve@ DATA
    ??_C@_0CJ@LBCFKDNP@WebRTC?4Audio?4EchoCanceller?4ErleB@ DATA
    ??_C@_0CJ@ODLDGPAL@?4?4?1?4?4?1common_audio?1real_fourier_@ DATA
    ??_C@_0CJ@PAJAEBOF@?4?4?1?4?4?1system_wrappers?1source?1cpu@ DATA
    ??_C@_0CK@BIPPMCJG@WebRTC?4Audio?4AgcClippingAdjustme@ DATA
    ??_C@_0CK@DCIDILPB@Render?5buffer?5underrun?5detected?5@ DATA
    ??_C@_0CK@FEBLACBL@read?5?$DN?$DN?5num_samples?5?$HM?$HM?5feof?$CIfile@ DATA
    ??_C@_0CK@FKHBCNJI@src_size?5?$DN?$DN?5src_channels?$CI?$CJ?5?$CK?5src@ DATA
    ??_C@_0CK@GIGIPNFP@WebRTC?4Audio?4EchoCanceller?4Rende@ DATA
    ??_C@_0CK@JOPMPLEL@picture?4height?$CI?$CJ?5?$CL?5offset_row?5?$DM?$DN@ DATA
    ??_C@_0CK@LDOEDMDP@AudioProcessing?3?3ProcessStream_A@ DATA
    ??_C@_0CK@NALLJNIP@?4?4?1?4?4?1common_audio?1resampler?1res@ DATA
    ??_C@_0CK@PLCAFOO@WebRTC?4Audio?4ApmCaptureOutputLev@ DATA
    ??_C@_0CL@CFHIPGEK@WebRTC?4Audio?4EchoCanceller?4MaxRe@ DATA
    ??_C@_0CL@HEIBENBH@WebRTC?4Audio?4EchoCanceller?4MinRe@ DATA
    ??_C@_0CL@IDJGHJJE@ICreateAudioProcess?3?5obj?9?$DOnum_fr@ DATA
    ??_C@_0CL@IJJOKNDL@?$FLts?$FN?5Transient?5suppression?5is?5no@ DATA
    ??_C@_0CL@JHCPGBJG@WebRTC?4Audio?4EchoCanceller?4Rende@ DATA
    ??_C@_0CL@KPMHMAIL@?4?4?1?4?4?2rtc_base?1numerics?1safe_con@ DATA
    ??_C@_0CL@MHILPFCL@VolumeCallbacks?5returned?5an?5inva@ DATA
    ??_C@_0CM@BCGJAGJI@destination_capacity?5?$DO?$DN?5destinat@ DATA
    ??_C@_0CM@BKKOPLPD@WebRTC?4Audio?4EchoCanceller?4ErlBa@ DATA
    ??_C@_0CM@EFPOGFC@AudioProcessing?3?3ProcessStream_S@ DATA
    ??_C@_0CM@EMNHMAPA@WebRTC?4Audio?4EchoCanceller?4MaxCa@ DATA
    ??_C@_0CM@FJFMBEAC@WebRTC?4Audio?4EchoCanceller?4MinCa@ DATA
    ??_C@_0CM@INHKBCOO@WebRTC?4Audio?4ApmCaptureInputLeve@ DATA
    ??_C@_0CM@MMPLDIOL@?$FLts?$FN?5Transient?5suppression?5is?5no@ DATA
    ??_C@_0CM@PFGMJAMN@WebRTC?4Audio?4EchoCanceller?4ErlBa@ DATA
    ??_C@_0CN@GDGFHIOD@AudioProcessing?3?3ProcessStream_C@ DATA
    ??_C@_0CN@GJIKCIJH@set_mode?$CIGainControl?3?3kFixedDigi@ DATA
    ??_C@_0CN@IPIHBCO@WebRTC?4Audio?4EchoCanceller?4ErleB@ DATA
    ??_C@_0CN@JEDEMKEI@WebRTC?4Audio?4ApmCaptureOutputLev@ DATA
    ??_C@_0CN@JKBGPDOK@WebRTC?4Audio?4PlatformReportedStr@ DATA
    ??_C@_0CN@MGCPMHIP@WebRTC?4Audio?4AecDelayAdjustmentM@ DATA
    ??_C@_0CN@NOOEFLEM@WebRTC?4Audio?4EchoCanceller?4Captu@ DATA
    ??_C@_0CN@OFGKKKHI@WebRTC?4Audio?4EchoCanceller?4MaxSk@ DATA
    ??_C@_0CN@OHDKBKBA@WebRTC?4Audio?4EchoCanceller?4ErleB@ DATA
    ??_C@_0CO@DFONDMGO@dst_capacity?5?$DO?$DN?5dst_channels?$CI?$CJ?5?$CK@ DATA
    ??_C@_0CO@IKFGEBLA@source_length?5?$DN?$DN?5resampler_?9?$DOreq@ DATA
    ??_C@_0CO@LDAPIKLF@queued?5?$HM?$HM?5GetLastError?$CI?$CJ?5?$DN?$DN?5ERRO@ DATA
    ??_C@_0CO@OALKHLIM@Reset?5due?5to?5render?5buffer?5overr@ DATA
    ??_C@_0CP@BIDJBLKL@?4?4?1?4?4?1modules?1audio_processing?1a@ DATA
    ??_C@_0CP@IJNONCKJ@WebRTC?4Audio?4AecDelayAdjustmentM@ DATA
    ??_C@_0DA@DKELJJMP@WebRTC?4Audio?4EchoCanceller?4Usabl@ DATA
    ??_C@_0DB@BJAKFHLD@WebRTC?4Audio?4ResidualEchoDetecto@ DATA
    ??_C@_0DB@EDDFGDPB@WebRTC?4Audio?4EchoCanceller?4Comfo@ DATA
    ??_C@_0DB@FBLOIHJO@WebRTC?4Audio?4EchoCanceller?4Comfo@ DATA
    ??_C@_0DB@FPEOEGII@Echo?5detector?5internal?5state?3?5?$HLE@ DATA
    ??_C@_0DB@IIGJLAFE@WebRTC?4Audio?4EchoCanceller?4Comfo@ DATA
    ??_C@_0DB@JKOCFEDL@WebRTC?4Audio?4EchoCanceller?4Comfo@ DATA
    ??_C@_0DB@OFDMNLM@?$FLagc?$FN?5VolumeCallbacks?5returned?5a@ DATA
    ??_C@_0DB@PGGGDGBN@AudioProcessing?3?3ProcessReverseS@ DATA
    ??_C@_0DC@BFPKHMFL@WebRtcVad_set_mode?$CIhandle_?0?5aggr@ DATA
    ??_C@_0DC@DDCNKNPE@WebRTC?4Audio?4EchoCanceller?4Relia@ DATA
    ??_C@_0DD@EDDIAMOO@AudioProcessing?3?3ProcessReverseS@ DATA
    ??_C@_0DD@EOCPDMLG@WebRTC?4Audio?4EchoCanceller?4Suppr@ DATA
    ??_C@_0DD@FMKENINJ@WebRTC?4Audio?4EchoCanceller?4Suppr@ DATA
    ??_C@_0DD@FMKODHBH@WebRTC?4Audio?4NumOfPlatformReport@ DATA
    ??_C@_0DD@IFHDOPBD@WebRTC?4Audio?4EchoCanceller?4Suppr@ DATA
    ??_C@_0DD@JHPIALHM@WebRTC?4Audio?4EchoCanceller?4Suppr@ DATA
    ??_C@_0DD@MAJLBONH@sample_rate_hz?5?$DN?$DN?516000?5?$HM?$HM?5sampl@ DATA
    ??_C@_0DE@BGOAGBOO@?4?4?1?4?4?1modules?1audio_processing?1g@ DATA
    ??_C@_0DE@DCIKOFIC@?4?4?1?4?4?1common_audio?1resampler?1pus@ DATA
    ??_C@_0DE@FJGHGMNM@AudioProcessing?3?3AnalyzeReverseS@ DATA
    ??_C@_0DE@FNCPMABG@?4?4?1?4?4?1modules?1audio_processing?1a@ DATA
    ??_C@_0DE@PAKLNPAO@New?5max?5number?5api?5jitter?5observ@ DATA
    ??_C@_0DF@CPAJNFDM@WebRTC?4Audio?4EchoCanceller?4Comfo@ DATA
    ??_C@_0DF@CPGLMHHP@New?5max?5number?5api?5jitter?5observ@ DATA
    ??_C@_0DF@MAMLLOAC@WebRTC?4Audio?4EchoCanceller?4Comfo@ DATA
    ??_C@_0DF@NCJMAFAL@0?5?$DN?$DN?5T?3?3SetDecSampRate?$CIisac_stat@ DATA
    ??_C@_0DF@NDGCCINB@1?5?$DN?$DN?5fwrite?$CIheader?0?5kWavHeaderSi@ DATA
    ??_C@_0DF@PLKPHOOJ@0?5?$DN?$DN?5T?3?3SetMaxRate?$CIisac_state_?0?5@ DATA
    ??_C@_0DG@IHNDDFBO@standalone_vad_?9?$DOAddAudio?$CIresamp@ DATA
    ??_C@_0DG@KHOKBGO@?4?4?1?4?4?1modules?1audio_processing?1a@ DATA
    ??_C@_0DH@DEPAEJEH@?4?4?1?4?4?1modules?1audio_processing?1v@ DATA
    ??_C@_0DH@GGNGPFLC@WebRTC?4Audio?4EchoCanceller?4Suppr@ DATA
    ??_C@_0DH@IJBEJOIM@WebRTC?4Audio?4EchoCanceller?4Suppr@ DATA
    ??_C@_0DH@IJFBDHEB@?4?4?1?4?4?1modules?1audio_processing?1a@ DATA
    ??_C@_0DI@LKNKEKMP@Reset?$CI?$CJ?5called?5with?5unsupported?5@ DATA
    ??_C@_0DI@OLBPAKOA@AudioProcessing?5module?5config?5er@ DATA
    ??_C@_0DI@PAFPPJMO@?4?4?1?4?4?1modules?1audio_processing?1a@ DATA
    ??_C@_0DJ@DJMJCBBK@?4?4?1?4?4?1modules?1audio_processing?1n@ DATA
    ??_C@_0DJ@EONFGKBC@?4?4?1?4?4?1modules?1audio_processing?1r@ DATA
    ??_C@_0DJ@FMHCHCEA@?4?4?1?4?4?1modules?1audio_processing?1t@ DATA
    ??_C@_0DJ@GKPAJMPA@?4?4?1?4?4?1modules?1audio_processing?1e@ DATA
    ??_C@_0DJ@LMBEGFND@?4?4?1?4?4?1modules?1audio_processing?1a@ DATA
    ??_C@_0DJ@OHNIPGEN@Invalid?5file?4?5Could?5not?5create?5f@ DATA
    ??_C@_0DL@DMGDMOGG@?4?4?1?4?4?1modules?1audio_processing?1a@ DATA
    ??_C@_0DL@IIBBGINC@0?5?$DN?$DN?5T?3?3SetDecSampRate?$CIisac_stat@ DATA
    ??_C@_0DL@JDKEHKLN@1?5?$DN?$DN?5fwrite?$CIblank_header?0?5kWavHe@ DATA
    ??_C@_0DL@LCIIGMA@?4?4?1?4?4?1modules?1audio_processing?1e@ DATA
    ??_C@_0DL@PDABMOAL@0?5?$DN?$DN?5T?3?3SetEncSampRate?$CIisac_stat@ DATA
    ??_C@_0DN@DJJAEOCI@0?5?$DN?$DN?5T?3?3Control?$CIisac_state_?0?5bit@ DATA
    ??_C@_0DN@IHANFAAD@in_buffer_?4size?$CI?$CJ?5?$DN?$DN?5rtc?3?3Checke@ DATA
    ??_C@_0DN@LJAGKJLD@Receiving?5a?5first?5externally?5rep@ DATA
    ??_C@_0DO@BNKLALPP@The?5runtime?5settings?5queue?5is?5fu@ DATA
    ??_C@_0DO@FLJAKE@?4?4?1?4?4?1modules?1audio_processing?1a@ DATA
    ??_C@_0DO@HKIJBOA@?4?4?1?4?4?1modules?1audio_processing?1v@ DATA
    ??_C@_0DP@GLKKMOKP@?4?4?1?4?4?1third_party?1abseil?9cpp?1abs@ DATA
    ??_C@_0DP@JHOKKJMB@Reset?$CI?$CJ?5called?5with?5unsupported?5@ DATA
    ??_C@_0DP@KCNPGKGO@0?5?$DN?$DN?5T?3?3EncoderInit?$CIisac_state_?0@ DATA
    ??_C@_0EB@ELMMMBFC@?4?4?1?4?4?1modules?1audio_processing?1t@ DATA
    ??_C@_0ED@GNNGNINH@0?5?$DN?$DN?5rtc?3?3AtomicOps?3?3CompareAndS@ DATA
    ??_C@_0ED@JBHIGMKF@?4?4?1?4?4?2modules?1audio_coding?1codec@ DATA
    ??_C@_0ED@NILMIDPA@?4?4?1?4?4?2modules?1audio_coding?1codec@ DATA
    ??_C@_0EE@BCADFKLB@picture?4width?$CI?$CJ?5?$CF?52?5?$DN?$DN?50?5?$HM?$HM?5pict@ DATA
    ??_C@_0EG@JOJKFHIE@0?5?$DN?$DN?5T?3?3SetMaxPayloadSize?$CIisac_s@ DATA
    ??_C@_0EH@KBGKEING@picture?4height?$CI?$CJ?5?$CF?52?5?$DN?$DN?50?5?$HM?$HM?5pic@ DATA
    ??_C@_0EH@KMEPMGED@dst_channels?5?$DN?$DN?5src_channels?5?$HM?$HM?5@ DATA
    ??_C@_0EL@PJHGEHL@resampler_?4ResetIfNeeded?$CIsample_@ DATA
    ??_C@_0EN@OEDMBOOK@?6?6?$CD?6?$CD?5Fatal?5error?5in?3?5?$CFs?0?5line?5?$CF@ DATA
    ??_C@_0FB@MJLHAFLK@?$CFs?$HL?5?$CCname?$CC?3?5?$CC?$CFs?$CC?0?5?$CCcat?$CC?3?5?$CC?$CFs?$CC?0?5?$CC@ DATA
    ??_C@_0FF@PKGEBMGB@CheckWavParameters?$CInum_channels?0@ DATA
    ??_C@_0FJ@ONLHHIPG@pitch_based_vad_?4VoicingProbabil@ DATA
    ??_C@_0FL@CABEPCAC@CheckWavParameters?$CInum_channels_@ DATA
    ??_C@_0FL@PGBMPCIO@0?5?$DN?$DN?5T?3?3ControlBwe?$CIisac_state_?0?5@ DATA
    ??_C@_0GA@PECFJANA@Mismatch?5between?5first?5estimated@ DATA
    ??_C@_0GD@NJCCJGFJ@ReadWavHeader?$CI?$CGreadable?0?5?$CGnum_ch@ DATA
    ??_C@_0GN@LLJMKPPN@standalone_vad_?9?$DOGetActivity?$CI?$CGch@ DATA
    ??_C@_0HC@BKJDPHEM@rtc?3?3AtomicOps?3?3CompareAndSwapPt@ DATA
    ??_C@_0HG@EMKJHMIC@rtc?3?3AtomicOps?3?3CompareAndSwapPt@ DATA
    ??_C@_0L@CHLKLGA@Enabled?9?$CFf?$AA@ DATA
    ??_C@_0L@GEFCOOIH@length?5?$DO?51?$AA@ DATA
    ??_C@_0L@LLGMJFID@order?5?$DO?$DN?50?$AA@ DATA
    ??_C@_0L@NMBBNFCD@a?5?$CF?5b?5?$DN?$DN?50?$AA@ DATA
    ??_C@_0L@OILAIMOE@?5ms?0?5end?3?5?$AA@ DATA
    ??_C@_0L@OJLPLLBB@Loongson?93?$AA@ DATA
    ??_C@_0L@PIBAHEPK@?5at?5block?5?$AA@ DATA
    ??_C@_0M@CGLBFNKL@0?4f?5?$DM?5noise?$AA@ DATA
    ??_C@_0M@CJNKCFEF@src?4DataV?$CI?$CJ?$AA@ DATA
    ??_C@_0M@DLGPIKKL@src?4DataU?$CI?$CJ?$AA@ DATA
    ??_C@_0M@EPOMEBLE@Legacy?5AEC?$DL?$AA@ DATA
    ??_C@_0M@HBLJDFBD@src?4DataY?$CI?$CJ?$AA@ DATA
    ??_C@_0M@LEHEONHM@length?5?$DO?51U?$AA@ DATA
    ??_C@_0M@LFLGIHEL@length?5?$DO?50U?$AA@ DATA
    ??_C@_0M@OCPOHPKB@?0?5?$CCargs?$CC?3?5?$HL?$AA@ DATA
    ??_C@_0MN@JJGCCPDG@libyuv?3?3I420Rect?$CIbuffer?9?$DOMutable@ DATA
    ??_C@_0N@KOPGIONB@?0?5outFreq?5?$DN?5?$AA@ DATA
    ??_C@_0NM@MHAEODKI@0?5?$DN?$DN?5libyuv?3?3I420Copy?$CIdata_y?0?5st@ DATA
    ??_C@_0O@EOLPMGHO@sparsity?5?$DO?$DN?51?$AA@ DATA
    ??_C@_0O@GJDEDPLP@offset_y?5?$DO?$DN?50?$AA@ DATA
    ??_C@_0O@GPMMALJD@config?4IsOk?$CI?$CJ?$AA@ DATA
    ??_C@_0O@KOHNIKFF@event_handle_?$AA@ DATA
    ??_C@_0O@MPEDDEAL@offset_x?5?$DO?$DN?50?$AA@ DATA
    ??_C@_0O@PLHKHPEE@WebRTC?4Audio?4?$AA@ DATA
    ??_C@_0P@BGCBJEMJ@?8?5for?5writing?4?$AA@ DATA
    ??_C@_0P@DKJHNNKI@?0?5Covariance?3?5?$AA@ DATA
    ??_C@_0P@DOFKJACI@fft_order?5?$DO?$DN?51?$AA@ DATA
    ??_C@_0P@FKLJCKIK@?0?5Best?5Delay?3?5?$AA@ DATA
    ??_C@_0P@KLGMOLJA@numerator?5?$DO?$DN?50?$AA@ DATA
    ??_EGainControlForExperimentalAgc@webrtc@@W3AEPAXI@Z
    ??_G?$AudioDecoderIsacT@UIsacFloat@webrtc@@@webrtc@@UAEPAXI@Z
    ??_G?$AudioEncoderIsacT@UIsacFloat@webrtc@@@webrtc@@UAEPAXI@Z
    ??_G?$PushResampler@F@webrtc@@UAEPAXI@Z
    ??_G?$PushResampler@M@webrtc@@UAEPAXI@Z
    ??_G?$RefCountedObject@VAudioProcessingImpl@webrtc@@@rtc@@MAEPAXI@Z
    ??_G?$RefCountedObject@VI420Buffer@webrtc@@@rtc@@MAEPAXI@Z
    ??_G?$RefCountedObject@VResidualEchoDetector@webrtc@@@rtc@@MAEPAXI@Z
    ??_GAdaptiveModeLevelEstimatorAgc@webrtc@@UAEPAXI@Z
    ??_GAgc@webrtc@@UAEPAXI@Z
    ??_GAudioBuffer@webrtc@@UAEPAXI@Z
    ??_GAudioConverter@webrtc@@UAEPAXI@Z
    ??_GAudioDecoder@webrtc@@UAEPAXI@Z
    ??_GAudioEncoder@webrtc@@UAEPAXI@Z
    ??_GAudioProcessing@webrtc@@UAEPAXI@Z
    ??_GAudioProcessingImpl@webrtc@@UAEPAXI@Z
    ??_GBlockProcessor@webrtc@@UAEPAXI@Z
    ??_GCompositionConverter@webrtc@@UAEPAXI@Z
    ??_GCopyConverter@webrtc@@UAEPAXI@Z
    ??_GDenoiserFilter@webrtc@@UAEPAXI@Z
    ??_GDenoiserFilterC@webrtc@@UAEPAXI@Z
    ??_GDenoiserFilterSSE2@webrtc@@UAEPAXI@Z
    ??_GDownmixConverter@webrtc@@UAEPAXI@Z
    ??_GEchoCanceller3@webrtc@@UAEPAXI@Z
    ??_GEchoControl@webrtc@@UAEPAXI@Z
    ??_GEchoDetector@webrtc@@UAEPAXI@Z
    ??_GEchoRemover@webrtc@@UAEPAXI@Z
    ??_GFIRFilter@webrtc@@UAEPAXI@Z
    ??_GFIRFilterC@webrtc@@UAEPAXI@Z
    ??_GFIRFilterSSE2@webrtc@@UAEPAXI@Z
    ??_GGainControl@webrtc@@MAEPAXI@Z
    ??_GGainControlForExperimentalAgc@webrtc@@UAEPAXI@Z
    ??_GGainControlImpl@webrtc@@UAEPAXI@Z
    ??_GI420Buffer@webrtc@@MAEPAXI@Z
    ??_GI420BufferInterface@webrtc@@MAEPAXI@Z
    ??_GLevelEstimator@webrtc@@MAEPAXI@Z
    ??_GLevelEstimatorImpl@webrtc@@UAEPAXI@Z
    ??_GNoiseSuppression@webrtc@@MAEPAXI@Z
    ??_GNoiseSuppressionImpl@webrtc@@UAEPAXI@Z
    ??_GNoiseSuppressionProxy@webrtc@@UAEPAXI@Z
    ??_GPlanarYuv8Buffer@webrtc@@MAEPAXI@Z
    ??_GPlanarYuvBuffer@webrtc@@MAEPAXI@Z
    ??_GPlatformThread@rtc@@UAEPAXI@Z
    ??_GPushSincResampler@webrtc@@UAEPAXI@Z
    ??_GReadableWav@webrtc@@UAEPAXI@Z
    ??_GRealFourier@webrtc@@UAEPAXI@Z
    ??_GRealFourierOoura@webrtc@@UAEPAXI@Z
    ??_GRefCountInterface@rtc@@MAEPAXI@Z
    ??_GRenderDelayBuffer@webrtc@@UAEPAXI@Z
    ??_GRenderDelayController@webrtc@@UAEPAXI@Z
    ??_GResampleConverter@webrtc@@UAEPAXI@Z
    ??_GResidualEchoDetector@webrtc@@UAEPAXI@Z
    ??_GSincResampler@webrtc@@UAEPAXI@Z
    ??_GSincResamplerCallback@webrtc@@UAEPAXI@Z
    ??_GSmoothingFilter@webrtc@@UAEPAXI@Z
    ??_GSmoothingFilterImpl@webrtc@@UAEPAXI@Z
    ??_GTypingDetection@webrtc@@UAEPAXI@Z
    ??_GUpmixConverter@webrtc@@UAEPAXI@Z
    ??_GVad@webrtc@@UAEPAXI@Z
    ??_GVideoFrameBuffer@webrtc@@MAEPAXI@Z
    ??_GVoiceDetection@webrtc@@MAEPAXI@Z
    ??_GVoiceDetectionImpl@webrtc@@UAEPAXI@Z
    ??_GVolumeCallbacks@webrtc@@UAEPAXI@Z
    ??_GWavFile@webrtc@@UAEPAXI@Z
    ??_GWavReader@webrtc@@UAEPAXI@Z
    ??_GWavWriter@webrtc@@UAEPAXI@Z
    ??_R0?AV?$AudioDecoderIsacT@UIsacFloat@webrtc@@@webrtc@@@8 DATA
    ??_R0?AV?$AudioEncoderIsacT@UIsacFloat@webrtc@@@webrtc@@@8 DATA
    ??_R0?AV?$PushResampler@F@webrtc@@@8 DATA
    ??_R0?AV?$PushResampler@M@webrtc@@@8 DATA
    ??_R0?AV?$RefCountedObject@VAudioProcessingImpl@webrtc@@@rtc@@@8 DATA
    ??_R0?AV?$RefCountedObject@VI420Buffer@webrtc@@@rtc@@@8 DATA
    ??_R0?AV?$RefCountedObject@VResidualEchoDetector@webrtc@@@rtc@@@8 DATA
    ??_R0?AVAdaptiveModeLevelEstimatorAgc@webrtc@@@8 DATA
    ??_R0?AVAgc@webrtc@@@8 DATA
    ??_R0?AVAudioBuffer@webrtc@@@8 DATA
    ??_R0?AVAudioConverter@webrtc@@@8 DATA
    ??_R0?AVAudioDecoder@webrtc@@@8 DATA
    ??_R0?AVAudioEncoder@webrtc@@@8 DATA
    ??_R0?AVAudioProcessing@webrtc@@@8 DATA
    ??_R0?AVAudioProcessingImpl@webrtc@@@8 DATA
    ??_R0?AVBlockProcessor@webrtc@@@8 DATA
    ??_R0?AVCompositionConverter@webrtc@@@8 DATA
    ??_R0?AVCopyConverter@webrtc@@@8 DATA
    ??_R0?AVDenoiserFilter@webrtc@@@8 DATA
    ??_R0?AVDenoiserFilterC@webrtc@@@8 DATA
    ??_R0?AVDenoiserFilterSSE2@webrtc@@@8 DATA
    ??_R0?AVDownmixConverter@webrtc@@@8 DATA
    ??_R0?AVEchoCanceller3@webrtc@@@8 DATA
    ??_R0?AVEchoControl@webrtc@@@8 DATA
    ??_R0?AVEchoDetector@webrtc@@@8 DATA
    ??_R0?AVEchoRemover@webrtc@@@8 DATA
    ??_R0?AVFIRFilter@webrtc@@@8 DATA
    ??_R0?AVFIRFilterC@webrtc@@@8 DATA
    ??_R0?AVFIRFilterSSE2@webrtc@@@8 DATA
    ??_R0?AVGainControl@webrtc@@@8 DATA
    ??_R0?AVGainControlForExperimentalAgc@webrtc@@@8 DATA
    ??_R0?AVGainControlImpl@webrtc@@@8 DATA
    ??_R0?AVI420Buffer@webrtc@@@8 DATA
    ??_R0?AVI420BufferInterface@webrtc@@@8 DATA
    ??_R0?AVLevelEstimator@webrtc@@@8 DATA
    ??_R0?AVLevelEstimatorImpl@webrtc@@@8 DATA
    ??_R0?AVNoiseSuppression@webrtc@@@8 DATA
    ??_R0?AVNoiseSuppressionImpl@webrtc@@@8 DATA
    ??_R0?AVNoiseSuppressionProxy@webrtc@@@8 DATA
    ??_R0?AVPlanarYuv8Buffer@webrtc@@@8 DATA
    ??_R0?AVPlanarYuvBuffer@webrtc@@@8 DATA
    ??_R0?AVPlatformThread@rtc@@@8 DATA
    ??_R0?AVPushSincResampler@webrtc@@@8 DATA
    ??_R0?AVReadableWav@webrtc@@@8 DATA
    ??_R0?AVRealFourier@webrtc@@@8 DATA
    ??_R0?AVRealFourierOoura@webrtc@@@8 DATA
    ??_R0?AVRefCountInterface@rtc@@@8 DATA
    ??_R0?AVRenderDelayBuffer@webrtc@@@8 DATA
    ??_R0?AVRenderDelayController@webrtc@@@8 DATA
    ??_R0?AVResampleConverter@webrtc@@@8 DATA
    ??_R0?AVResidualEchoDetector@webrtc@@@8 DATA
    ??_R0?AVSincResampler@webrtc@@@8 DATA
    ??_R0?AVSincResamplerCallback@webrtc@@@8 DATA
    ??_R0?AVSmoothingFilter@webrtc@@@8 DATA
    ??_R0?AVSmoothingFilterImpl@webrtc@@@8 DATA
    ??_R0?AVTypingDetection@webrtc@@@8 DATA
    ??_R0?AVUpmixConverter@webrtc@@@8 DATA
    ??_R0?AVVad@webrtc@@@8 DATA
    ??_R0?AVVideoFrameBuffer@webrtc@@@8 DATA
    ??_R0?AVVoiceDetection@webrtc@@@8 DATA
    ??_R0?AVVoiceDetectionImpl@webrtc@@@8 DATA
    ??_R0?AVVolumeCallbacks@webrtc@@@8 DATA
    ??_R0?AVWavFile@webrtc@@@8 DATA
    ??_R0?AVWavReader@webrtc@@@8 DATA
    ??_R0?AVWavWriter@webrtc@@@8 DATA
    ??_R13?0A@EA@VolumeCallbacks@webrtc@@8 DATA
    ??_R1A@?0A@EA@?$AudioDecoderIsacT@UIsacFloat@webrtc@@@webrtc@@8 DATA
    ??_R1A@?0A@EA@?$AudioEncoderIsacT@UIsacFloat@webrtc@@@webrtc@@8 DATA
    ??_R1A@?0A@EA@?$PushResampler@F@webrtc@@8 DATA
    ??_R1A@?0A@EA@?$PushResampler@M@webrtc@@8 DATA
    ??_R1A@?0A@EA@?$RefCountedObject@VAudioProcessingImpl@webrtc@@@rtc@@8 DATA
    ??_R1A@?0A@EA@?$RefCountedObject@VI420Buffer@webrtc@@@rtc@@8 DATA
    ??_R1A@?0A@EA@?$RefCountedObject@VResidualEchoDetector@webrtc@@@rtc@@8 DATA
    ??_R1A@?0A@EA@AdaptiveModeLevelEstimatorAgc@webrtc@@8 DATA
    ??_R1A@?0A@EA@Agc@webrtc@@8 DATA
    ??_R1A@?0A@EA@AudioBuffer@webrtc@@8 DATA
    ??_R1A@?0A@EA@AudioConverter@webrtc@@8 DATA
    ??_R1A@?0A@EA@AudioDecoder@webrtc@@8 DATA
    ??_R1A@?0A@EA@AudioEncoder@webrtc@@8 DATA
    ??_R1A@?0A@EA@AudioProcessing@webrtc@@8 DATA
    ??_R1A@?0A@EA@AudioProcessingImpl@webrtc@@8 DATA
    ??_R1A@?0A@EA@CompositionConverter@webrtc@@8 DATA
    ??_R1A@?0A@EA@CopyConverter@webrtc@@8 DATA
    ??_R1A@?0A@EA@DenoiserFilter@webrtc@@8 DATA
    ??_R1A@?0A@EA@DenoiserFilterC@webrtc@@8 DATA
    ??_R1A@?0A@EA@DenoiserFilterSSE2@webrtc@@8 DATA
    ??_R1A@?0A@EA@DownmixConverter@webrtc@@8 DATA
    ??_R1A@?0A@EA@EchoCanceller3@webrtc@@8 DATA
    ??_R1A@?0A@EA@EchoControl@webrtc@@8 DATA
    ??_R1A@?0A@EA@EchoDetector@webrtc@@8 DATA
    ??_R1A@?0A@EA@FIRFilter@webrtc@@8 DATA
    ??_R1A@?0A@EA@FIRFilterC@webrtc@@8 DATA
    ??_R1A@?0A@EA@FIRFilterSSE2@webrtc@@8 DATA
    ??_R1A@?0A@EA@GainControl@webrtc@@8 DATA
    ??_R1A@?0A@EA@GainControlForExperimentalAgc@webrtc@@8 DATA
    ??_R1A@?0A@EA@GainControlImpl@webrtc@@8 DATA
    ??_R1A@?0A@EA@I420Buffer@webrtc@@8 DATA
    ??_R1A@?0A@EA@I420BufferInterface@webrtc@@8 DATA
    ??_R1A@?0A@EA@LevelEstimator@webrtc@@8 DATA
    ??_R1A@?0A@EA@LevelEstimatorImpl@webrtc@@8 DATA
    ??_R1A@?0A@EA@NoiseSuppression@webrtc@@8 DATA
    ??_R1A@?0A@EA@NoiseSuppressionImpl@webrtc@@8 DATA
    ??_R1A@?0A@EA@NoiseSuppressionProxy@webrtc@@8 DATA
    ??_R1A@?0A@EA@PlanarYuv8Buffer@webrtc@@8 DATA
    ??_R1A@?0A@EA@PlanarYuvBuffer@webrtc@@8 DATA
    ??_R1A@?0A@EA@PlatformThread@rtc@@8 DATA
    ??_R1A@?0A@EA@PushSincResampler@webrtc@@8 DATA
    ??_R1A@?0A@EA@RealFourier@webrtc@@8 DATA
    ??_R1A@?0A@EA@RealFourierOoura@webrtc@@8 DATA
    ??_R1A@?0A@EA@RefCountInterface@rtc@@8 DATA
    ??_R1A@?0A@EA@ResampleConverter@webrtc@@8 DATA
    ??_R1A@?0A@EA@ResidualEchoDetector@webrtc@@8 DATA
    ??_R1A@?0A@EA@SincResampler@webrtc@@8 DATA
    ??_R1A@?0A@EA@SincResamplerCallback@webrtc@@8 DATA
    ??_R1A@?0A@EA@SmoothingFilter@webrtc@@8 DATA
    ??_R1A@?0A@EA@SmoothingFilterImpl@webrtc@@8 DATA
    ??_R1A@?0A@EA@TypingDetection@webrtc@@8 DATA
    ??_R1A@?0A@EA@UpmixConverter@webrtc@@8 DATA
    ??_R1A@?0A@EA@VideoFrameBuffer@webrtc@@8 DATA
    ??_R1A@?0A@EA@VoiceDetection@webrtc@@8 DATA
    ??_R1A@?0A@EA@VoiceDetectionImpl@webrtc@@8 DATA
    ??_R1A@?0A@EA@VolumeCallbacks@webrtc@@8 DATA
    ??_R1A@?0A@EA@WavFile@webrtc@@8 DATA
    ??_R1A@?0A@EA@WavReader@webrtc@@8 DATA
    ??_R1A@?0A@EA@WavWriter@webrtc@@8 DATA
    ??_R2?$AudioDecoderIsacT@UIsacFloat@webrtc@@@webrtc@@8 DATA
    ??_R2?$AudioEncoderIsacT@UIsacFloat@webrtc@@@webrtc@@8 DATA
    ??_R2?$PushResampler@F@webrtc@@8 DATA
    ??_R2?$PushResampler@M@webrtc@@8 DATA
    ??_R2?$RefCountedObject@VAudioProcessingImpl@webrtc@@@rtc@@8 DATA
    ??_R2?$RefCountedObject@VI420Buffer@webrtc@@@rtc@@8 DATA
    ??_R2?$RefCountedObject@VResidualEchoDetector@webrtc@@@rtc@@8 DATA
    ??_R2AdaptiveModeLevelEstimatorAgc@webrtc@@8 DATA
    ??_R2Agc@webrtc@@8 DATA
    ??_R2AudioBuffer@webrtc@@8 DATA
    ??_R2AudioConverter@webrtc@@8 DATA
    ??_R2AudioDecoder@webrtc@@8 DATA
    ??_R2AudioEncoder@webrtc@@8 DATA
    ??_R2AudioProcessing@webrtc@@8 DATA
    ??_R2AudioProcessingImpl@webrtc@@8 DATA
    ??_R2BlockProcessor@webrtc@@8 DATA
    ??_R2CompositionConverter@webrtc@@8 DATA
    ??_R2CopyConverter@webrtc@@8 DATA
    ??_R2DenoiserFilter@webrtc@@8 DATA
    ??_R2DenoiserFilterC@webrtc@@8 DATA
    ??_R2DenoiserFilterSSE2@webrtc@@8 DATA
    ??_R2DownmixConverter@webrtc@@8 DATA
    ??_R2EchoCanceller3@webrtc@@8 DATA
    ??_R2EchoControl@webrtc@@8 DATA
    ??_R2EchoDetector@webrtc@@8 DATA
    ??_R2EchoRemover@webrtc@@8 DATA
    ??_R2FIRFilter@webrtc@@8 DATA
    ??_R2FIRFilterC@webrtc@@8 DATA
    ??_R2FIRFilterSSE2@webrtc@@8 DATA
    ??_R2GainControl@webrtc@@8 DATA
    ??_R2GainControlForExperimentalAgc@webrtc@@8 DATA
    ??_R2GainControlImpl@webrtc@@8 DATA
    ??_R2I420Buffer@webrtc@@8 DATA
    ??_R2I420BufferInterface@webrtc@@8 DATA
    ??_R2LevelEstimator@webrtc@@8 DATA
    ??_R2LevelEstimatorImpl@webrtc@@8 DATA
    ??_R2NoiseSuppression@webrtc@@8 DATA
    ??_R2NoiseSuppressionImpl@webrtc@@8 DATA
    ??_R2NoiseSuppressionProxy@webrtc@@8 DATA
    ??_R2PlanarYuv8Buffer@webrtc@@8 DATA
    ??_R2PlanarYuvBuffer@webrtc@@8 DATA
    ??_R2PlatformThread@rtc@@8 DATA
    ??_R2PushSincResampler@webrtc@@8 DATA
    ??_R2ReadableWav@webrtc@@8 DATA
    ??_R2RealFourier@webrtc@@8 DATA
    ??_R2RealFourierOoura@webrtc@@8 DATA
    ??_R2RefCountInterface@rtc@@8 DATA
    ??_R2RenderDelayBuffer@webrtc@@8 DATA
    ??_R2RenderDelayController@webrtc@@8 DATA
    ??_R2ResampleConverter@webrtc@@8 DATA
    ??_R2ResidualEchoDetector@webrtc@@8 DATA
    ??_R2SincResampler@webrtc@@8 DATA
    ??_R2SincResamplerCallback@webrtc@@8 DATA
    ??_R2SmoothingFilter@webrtc@@8 DATA
    ??_R2SmoothingFilterImpl@webrtc@@8 DATA
    ??_R2TypingDetection@webrtc@@8 DATA
    ??_R2UpmixConverter@webrtc@@8 DATA
    ??_R2Vad@webrtc@@8 DATA
    ??_R2VideoFrameBuffer@webrtc@@8 DATA
    ??_R2VoiceDetection@webrtc@@8 DATA
    ??_R2VoiceDetectionImpl@webrtc@@8 DATA
    ??_R2VolumeCallbacks@webrtc@@8 DATA
    ??_R2WavFile@webrtc@@8 DATA
    ??_R2WavReader@webrtc@@8 DATA
    ??_R2WavWriter@webrtc@@8 DATA
    ??_R3?$AudioDecoderIsacT@UIsacFloat@webrtc@@@webrtc@@8 DATA
    ??_R3?$AudioEncoderIsacT@UIsacFloat@webrtc@@@webrtc@@8 DATA
    ??_R3?$PushResampler@F@webrtc@@8 DATA
    ??_R3?$PushResampler@M@webrtc@@8 DATA
    ??_R3?$RefCountedObject@VAudioProcessingImpl@webrtc@@@rtc@@8 DATA
    ??_R3?$RefCountedObject@VI420Buffer@webrtc@@@rtc@@8 DATA
    ??_R3?$RefCountedObject@VResidualEchoDetector@webrtc@@@rtc@@8 DATA
    ??_R3AdaptiveModeLevelEstimatorAgc@webrtc@@8 DATA
    ??_R3Agc@webrtc@@8 DATA
    ??_R3AudioBuffer@webrtc@@8 DATA
    ??_R3AudioConverter@webrtc@@8 DATA
    ??_R3AudioDecoder@webrtc@@8 DATA
    ??_R3AudioEncoder@webrtc@@8 DATA
    ??_R3AudioProcessing@webrtc@@8 DATA
    ??_R3AudioProcessingImpl@webrtc@@8 DATA
    ??_R3BlockProcessor@webrtc@@8 DATA
    ??_R3CompositionConverter@webrtc@@8 DATA
    ??_R3CopyConverter@webrtc@@8 DATA
    ??_R3DenoiserFilter@webrtc@@8 DATA
    ??_R3DenoiserFilterC@webrtc@@8 DATA
    ??_R3DenoiserFilterSSE2@webrtc@@8 DATA
    ??_R3DownmixConverter@webrtc@@8 DATA
    ??_R3EchoCanceller3@webrtc@@8 DATA
    ??_R3EchoControl@webrtc@@8 DATA
    ??_R3EchoDetector@webrtc@@8 DATA
    ??_R3EchoRemover@webrtc@@8 DATA
    ??_R3FIRFilter@webrtc@@8 DATA
    ??_R3FIRFilterC@webrtc@@8 DATA
    ??_R3FIRFilterSSE2@webrtc@@8 DATA
    ??_R3GainControl@webrtc@@8 DATA
    ??_R3GainControlForExperimentalAgc@webrtc@@8 DATA
    ??_R3GainControlImpl@webrtc@@8 DATA
    ??_R3I420Buffer@webrtc@@8 DATA
    ??_R3I420BufferInterface@webrtc@@8 DATA
    ??_R3LevelEstimator@webrtc@@8 DATA
    ??_R3LevelEstimatorImpl@webrtc@@8 DATA
    ??_R3NoiseSuppression@webrtc@@8 DATA
    ??_R3NoiseSuppressionImpl@webrtc@@8 DATA
    ??_R3NoiseSuppressionProxy@webrtc@@8 DATA
    ??_R3PlanarYuv8Buffer@webrtc@@8 DATA
    ??_R3PlanarYuvBuffer@webrtc@@8 DATA
    ??_R3PlatformThread@rtc@@8 DATA
    ??_R3PushSincResampler@webrtc@@8 DATA
    ??_R3ReadableWav@webrtc@@8 DATA
    ??_R3RealFourier@webrtc@@8 DATA
    ??_R3RealFourierOoura@webrtc@@8 DATA
    ??_R3RefCountInterface@rtc@@8 DATA
    ??_R3RenderDelayBuffer@webrtc@@8 DATA
    ??_R3RenderDelayController@webrtc@@8 DATA
    ??_R3ResampleConverter@webrtc@@8 DATA
    ??_R3ResidualEchoDetector@webrtc@@8 DATA
    ??_R3SincResampler@webrtc@@8 DATA
    ??_R3SincResamplerCallback@webrtc@@8 DATA
    ??_R3SmoothingFilter@webrtc@@8 DATA
    ??_R3SmoothingFilterImpl@webrtc@@8 DATA
    ??_R3TypingDetection@webrtc@@8 DATA
    ??_R3UpmixConverter@webrtc@@8 DATA
    ??_R3Vad@webrtc@@8 DATA
    ??_R3VideoFrameBuffer@webrtc@@8 DATA
    ??_R3VoiceDetection@webrtc@@8 DATA
    ??_R3VoiceDetectionImpl@webrtc@@8 DATA
    ??_R3VolumeCallbacks@webrtc@@8 DATA
    ??_R3WavFile@webrtc@@8 DATA
    ??_R3WavReader@webrtc@@8 DATA
    ??_R3WavWriter@webrtc@@8 DATA
    ??_R4?$AudioDecoderIsacT@UIsacFloat@webrtc@@@webrtc@@6B@ DATA
    ??_R4?$AudioEncoderIsacT@UIsacFloat@webrtc@@@webrtc@@6B@ DATA
    ??_R4?$PushResampler@F@webrtc@@6B@ DATA
    ??_R4?$PushResampler@M@webrtc@@6B@ DATA
    ??_R4?$RefCountedObject@VAudioProcessingImpl@webrtc@@@rtc@@6B@ DATA
    ??_R4?$RefCountedObject@VI420Buffer@webrtc@@@rtc@@6B@ DATA
    ??_R4?$RefCountedObject@VResidualEchoDetector@webrtc@@@rtc@@6B@ DATA
    ??_R4AdaptiveModeLevelEstimatorAgc@webrtc@@6B@ DATA
    ??_R4Agc@webrtc@@6B@ DATA
    ??_R4AudioBuffer@webrtc@@6B@ DATA
    ??_R4AudioConverter@webrtc@@6B@ DATA
    ??_R4AudioDecoder@webrtc@@6B@ DATA
    ??_R4AudioEncoder@webrtc@@6B@ DATA
    ??_R4AudioProcessing@webrtc@@6B@ DATA
    ??_R4AudioProcessingImpl@webrtc@@6B@ DATA
    ??_R4BlockProcessor@webrtc@@6B@ DATA
    ??_R4CompositionConverter@webrtc@@6B@ DATA
    ??_R4CopyConverter@webrtc@@6B@ DATA
    ??_R4DenoiserFilter@webrtc@@6B@ DATA
    ??_R4DenoiserFilterC@webrtc@@6B@ DATA
    ??_R4DenoiserFilterSSE2@webrtc@@6B@ DATA
    ??_R4DownmixConverter@webrtc@@6B@ DATA
    ??_R4EchoCanceller3@webrtc@@6B@ DATA
    ??_R4EchoControl@webrtc@@6B@ DATA
    ??_R4EchoDetector@webrtc@@6B@ DATA
    ??_R4EchoRemover@webrtc@@6B@ DATA
    ??_R4FIRFilter@webrtc@@6B@ DATA
    ??_R4FIRFilterC@webrtc@@6B@ DATA
    ??_R4FIRFilterSSE2@webrtc@@6B@ DATA
    ??_R4GainControl@webrtc@@6B@ DATA
    ??_R4GainControlForExperimentalAgc@webrtc@@6BGainControl@1@@ DATA
    ??_R4GainControlForExperimentalAgc@webrtc@@6BVolumeCallbacks@1@@ DATA
    ??_R4GainControlImpl@webrtc@@6B@ DATA
    ??_R4I420Buffer@webrtc@@6B@ DATA
    ??_R4I420BufferInterface@webrtc@@6B@ DATA
    ??_R4LevelEstimator@webrtc@@6B@ DATA
    ??_R4LevelEstimatorImpl@webrtc@@6B@ DATA
    ??_R4NoiseSuppression@webrtc@@6B@ DATA
    ??_R4NoiseSuppressionImpl@webrtc@@6B@ DATA
    ??_R4NoiseSuppressionProxy@webrtc@@6B@ DATA
    ??_R4PlanarYuv8Buffer@webrtc@@6B@ DATA
    ??_R4PlanarYuvBuffer@webrtc@@6B@ DATA
    ??_R4PlatformThread@rtc@@6B@ DATA
    ??_R4PushSincResampler@webrtc@@6B@ DATA
    ??_R4ReadableWav@webrtc@@6B@ DATA
    ??_R4RealFourier@webrtc@@6B@ DATA
    ??_R4RealFourierOoura@webrtc@@6B@ DATA
    ??_R4RefCountInterface@rtc@@6B@ DATA
    ??_R4RenderDelayBuffer@webrtc@@6B@ DATA
    ??_R4RenderDelayController@webrtc@@6B@ DATA
    ??_R4ResampleConverter@webrtc@@6B@ DATA
    ??_R4ResidualEchoDetector@webrtc@@6B@ DATA
    ??_R4SincResampler@webrtc@@6B@ DATA
    ??_R4SincResamplerCallback@webrtc@@6B@ DATA
    ??_R4SmoothingFilter@webrtc@@6B@ DATA
    ??_R4SmoothingFilterImpl@webrtc@@6B@ DATA
    ??_R4TypingDetection@webrtc@@6B@ DATA
    ??_R4UpmixConverter@webrtc@@6B@ DATA
    ??_R4Vad@webrtc@@6B@ DATA
    ??_R4VideoFrameBuffer@webrtc@@6B@ DATA
    ??_R4VoiceDetection@webrtc@@6B@ DATA
    ??_R4VoiceDetectionImpl@webrtc@@6B@ DATA
    ??_R4VolumeCallbacks@webrtc@@6B@ DATA
    ??_R4WavFile@webrtc@@6B@ DATA
    ??_R4WavReader@webrtc@@6B@ DATA
    ??_R4WavWriter@webrtc@@6B@ DATA
    ?Accumulate@EarlyReverbLengthEstimator@ReverbDecayEstimator@webrtc@@QAEXMM@Z
    ?Accumulate@LateReverbLinearRegressor@ReverbDecayEstimator@webrtc@@QAEXM@Z
    ?Acquire@RaceChecker@rtc@@ABE_NXZ
    ?Adapt@AdaptiveFirFilter@webrtc@@QAEXABVRenderBuffer@2@ABUFftData@2@@Z
    ?AdaptPartitions@aec3@webrtc@@YAXABVRenderBuffer@2@ABUFftData@2@V?$ArrayView@UFftData@webrtc@@$0?BCGH@@rtc@@@Z
    ?AdaptPartitions_SSE2@aec3@webrtc@@YAXABVRenderBuffer@2@ABUFftData@2@V?$ArrayView@UFftData@webrtc@@$0?BCGH@@rtc@@@Z
    ?Add@AudioFrameOperations@webrtc@@SAXABVAudioFrame@2@PAV32@@Z
    ?AddAudio@StandaloneVad@webrtc@@QAEHPBFI@Z
    ?AddEchoReverb@ReverbModelFallback@webrtc@@QAEXABV?$array@M$0EB@@std@@IMPAV34@@Z
    ?AddEventIfEnabled@TraceEndOnScopeClose@trace_event_internal@webrtc@@AAEXXZ
    ?AddLogToStream@LogMessage@rtc@@SAXPAVLogSink@2@W4LoggingSeverity@2@@Z
    ?AddObservation@DivergentFilterFraction@webrtc@@QAEXABUPowerLevel@2@00@Z
    ?AddRef@?$RefCountedObject@VAudioProcessingImpl@webrtc@@@rtc@@UBEXXZ
    ?AddRef@?$RefCountedObject@VI420Buffer@webrtc@@@rtc@@UBEXXZ
    ?AddRef@?$RefCountedObject@VResidualEchoDetector@webrtc@@@rtc@@UBEXXZ
    ?AddReverb@ReverbModel@webrtc@@QAEXV?$ArrayView@$$CBM$0?BCGH@@rtc@@0MV?$ArrayView@M$0?BCGH@@4@@Z
    ?AddReverbNoFreqShaping@ReverbModel@webrtc@@QAEXV?$ArrayView@$$CBM$0?BCGH@@rtc@@MMV?$ArrayView@M$0?BCGH@@4@@Z
    ?AddSample@SmoothingFilterImpl@webrtc@@UAEXM@Z
    ?AddTag@LogMessage@rtc@@QAEXPBD@Z
    ?AddTraceEvent@EventTracer@webrtc@@SAXDPBEPBD_KHPAPBD0PB_KE@Z
    ?AddValue@BlockMeanCalculator@webrtc@@QAEXM@Z
    ?AdjustSize@BlockBuffer@webrtc@@QAEHH@Z
    ?Aggregate@MatchedFilterLagAggregator@webrtc@@QAE?AV?$optional@UDelayEstimate@webrtc@@@absl@@V?$ArrayView@$$CBULagEstimate@MatchedFilter@webrtc@@$0?BCGH@@rtc@@@Z
    ?AlignedFree@webrtc@@YAXPAX@Z
    ?AlignedMalloc@webrtc@@YAPAXII@Z
    ?AllocCplxBuffer@RealFourier@webrtc@@SA?AV?$unique_ptr@$$BY0A@V?$complex@M@std@@UAlignedFreeDeleter@webrtc@@@std@@H@Z
    ?AllocOutputBuffers@MJpegDecoder@libyuv@@AAEXH@Z
    ?AllocRealBuffer@RealFourier@webrtc@@SA?AV?$unique_ptr@$$BY0A@MUAlignedFreeDeleter@webrtc@@@std@@H@Z
    ?AllocateRenderQueue@AudioProcessingImpl@webrtc@@AAEXXZ
    ?Analysis@ThreeBandFilterBank@webrtc@@QAEXPBMIPBQAM@Z
    ?Analyze@NoiseLevelEstimator@webrtc@@QAEMABV?$AudioFrameView@$$CBM@2@@Z
    ?Analyze@RmsLevel@webrtc@@QAEXV?$ArrayView@$$CBF$0?BCGH@@rtc@@@Z
    ?Analyze@SignalClassifier@webrtc@@QAE?AW4SignalType@12@V?$ArrayView@$$CBM$0?BCGH@@rtc@@@Z
    ?AnalyzeCapture@EchoCanceller3@webrtc@@UAEXPAVAudioBuffer@2@@Z
    ?AnalyzeCaptureAudio@GainControlImpl@webrtc@@QAEHPAVAudioBuffer@2@@Z
    ?AnalyzeCaptureAudio@NoiseSuppressionImpl@webrtc@@QAEXPAVAudioBuffer@2@@Z
    ?AnalyzeCaptureAudio@ResidualEchoDetector@webrtc@@UAEXV?$ArrayView@$$CBM$0?BCGH@@rtc@@@Z
    ?AnalyzeFilter@ReverbDecayEstimator@webrtc@@AAEXV?$ArrayView@$$CBM$0?BCGH@@rtc@@@Z
    ?AnalyzeFrame@VadWithLevel@webrtc@@QAE?AULevelAndProbability@12@V?$AudioFrameView@$$CBM@2@@Z
    ?AnalyzeMuted@RmsLevel@webrtc@@QAEXI@Z
    ?AnalyzePreProcess@AgcManagerDirect@webrtc@@QAEXPAFHI@Z
    ?AnalyzePreproc@Agc@webrtc@@UAEMPBFI@Z
    ?AnalyzeRegion@FilterAnalyzer@webrtc@@AAEXV?$ArrayView@$$CBM$0?BCGH@@rtc@@ABVRenderBuffer@2@@Z
    ?AnalyzeRender@EchoCanceller3@webrtc@@UAEXPAVAudioBuffer@2@@Z
    ?AnalyzeRenderAudio@ResidualEchoDetector@webrtc@@UAEXV?$ArrayView@$$CBM$0?BCGH@@rtc@@@Z
    ?AnalyzeReverseStream@AudioProcessingImpl@webrtc@@UAEHPBQBMIHW4ChannelLayout@AudioProcessing@2@@Z
    ?AnalyzeReverseStreamLocked@AudioProcessingImpl@webrtc@@AAEHPBQBMABVStreamConfig@2@1@Z
    ?Append@SimpleStringBuilder@rtc@@QAEAAV12@PBDI@Z
    ?AppendFormat@SimpleStringBuilder@rtc@@QAAAAV12@PBDZZ
    ?AppendFormat@StringBuilder@rtc@@QAAAAV12@PBDZZ
    ?Apply@RenderReverbModel@webrtc@@QAEXABUVectorBuffer@2@HMV?$ArrayView@M$0?BCGH@@rtc@@@Z
    ?ApplyBiQuad@CascadedBiQuadFilter@webrtc@@AAEXV?$ArrayView@$$CBM$0?BCGH@@rtc@@V?$ArrayView@M$0?BCGH@@4@PAUBiQuad@12@@Z
    ?ApplyConfig@AudioProcessingImpl@webrtc@@UAEXABUConfig@AudioProcessing@2@@Z
    ?ApplyConfig@GainController2@webrtc@@QAEXABU1Config@AudioProcessing@2@@Z
    ?ApplyFilter@aec3@webrtc@@YAXABVRenderBuffer@2@V?$ArrayView@$$CBUFftData@webrtc@@$0?BCGH@@rtc@@PAUFftData@2@@Z
    ?ApplyFilter_SSE2@aec3@webrtc@@YAXABVRenderBuffer@2@V?$ArrayView@$$CBUFftData@webrtc@@$0?BCGH@@rtc@@PAUFftData@2@@Z
    ?ApplyGain@GainApplier@webrtc@@QAEXV?$AudioFrameView@M@2@@Z
    ?ApplyGain@SuppressionFilter@webrtc@@QAEXABUFftData@2@0ABV?$array@M$0EB@@std@@M0PAV?$vector@V?$vector@MV?$allocator@M@std@@@std@@V?$allocator@V?$vector@MV?$allocator@M@std@@@std@@@2@@5@@Z
    ?ApplyHalfGain@AudioFrameOperations@webrtc@@SAXPAVAudioFrame@2@@Z
    ?AreAllBandsStationary@StationarityEstimator@webrtc@@AAE_NXZ
    ?AttachAecDump@AudioProcessingImpl@webrtc@@UAEXV?$unique_ptr@VAecDump@webrtc@@U?$default_delete@VAecDump@webrtc@@@std@@@std@@@Z
    ?AttachPlayoutAudioGenerator@AudioProcessingImpl@webrtc@@UAEXV?$unique_ptr@VAudioGenerator@webrtc@@U?$default_delete@VAudioGenerator@webrtc@@@std@@@std@@@Z
    ?AudioContent@LoudnessHistogram@webrtc@@QBENXZ
    ?AvaliableSpace@BlockBuffer@webrtc@@QAEIXZ
    ?Average@MovingAverage@aec3@webrtc@@QAEXV?$ArrayView@$$CBM$0?BCGH@@rtc@@V?$ArrayView@M$0?BCGH@@5@@Z
    ?Average@RmsLevel@webrtc@@QAEHXZ
    ?AverageAndPeak@RmsLevel@webrtc@@QAE?AULevels@12@XZ
    ?BufferLevel@VadCircularBuffer@webrtc@@AAEHXZ
    ?BufferNearendFrame@webrtc@@YAXIIPBQBMIQAY0DA@M@Z
    ?BufferOutputBlock@webrtc@@YAXIQAY0EA@$$CBMPAIQAY0IA@M@Z
    ?CalculateMoments@MovingMoments@webrtc@@QAEXPBMIPAM1@Z
    ?CalledOnValidThread@ThreadCheckerImpl@rtc@@QBE_NXZ
    ?CaptureAnalyzerActive@ApmSubmoduleStates@AudioProcessingImpl@webrtc@@QBE_NXZ
    ?CaptureFullBandProcessingActive@ApmSubmoduleStates@AudioProcessingImpl@webrtc@@QBE_NXZ
    ?CaptureMultiBandProcessingActive@ApmSubmoduleStates@AudioProcessingImpl@webrtc@@QBE_NXZ
    ?CaptureMultiBandSubModulesActive@ApmSubmoduleStates@AudioProcessingImpl@webrtc@@QBE_NXZ
    ?Channels@?$AudioDecoderIsacT@UIsacFloat@webrtc@@@webrtc@@UBEIXZ
    ?CheckBlockSize@RmsLevel@webrtc@@AAEXI@Z
    ?CheckLowerPitchPeriodsAndComputePitchGain@rnn_vad@webrtc@@YA?AUPitchInfo@12@V?$ArrayView@$$CBM$0DGA@@rtc@@HU312@@Z
    ?CheckParameterCombination@FixedDigitalLevelEstimator@webrtc@@AAEXXZ
    ?CheckSilenceComputeFeatures@FeaturesExtractor@rnn_vad@webrtc@@QAE_NV?$ArrayView@$$CBM$0PA@@rtc@@V?$ArrayView@M$0CK@@5@@Z
    ?CheckSilenceComputeFeatures@SpectralFeaturesExtractor@rnn_vad@webrtc@@QAE_NV?$ArrayView@$$CBM$0BOA@@rtc@@0VSpectralFeaturesView@23@@Z
    ?CheckSizes@AudioConverter@webrtc@@IBEXII@Z
    ?CheckVolumeAndReset@AgcManagerDirect@webrtc@@AAEHXZ
    ?CheckWavParameters@webrtc@@YA_NIHW4WavFormat@1@II@Z
    ?ChromaHeight@I010BufferInterface@webrtc@@UBEHXZ
    ?ChromaHeight@I420BufferInterface@webrtc@@UBEHXZ
    ?ChromaHeight@I444BufferInterface@webrtc@@UBEHXZ
    ?ChromaWidth@I010BufferInterface@webrtc@@UBEHXZ
    ?ChromaWidth@I420BufferInterface@webrtc@@UBEHXZ
    ?ChromaWidth@I444BufferInterface@webrtc@@UBEHXZ
    ?ChunkSize@SincResampler@webrtc@@QBEIXZ
    ?Clear@BlockMeanCalculator@webrtc@@AAEXXZ
    ?Clear@CircularBuffer@webrtc@@QAEXXZ
    ?Clear@DivergentFilterFraction@webrtc@@AAEXXZ
    ?Clear@MeanVarianceEstimator@webrtc@@QAEXXZ
    ?Clear@MovingMax@webrtc@@QAEXXZ
    ?Clear@NormalizedCovarianceEstimator@webrtc@@QAEXXZ
    ?Close@WavReader@webrtc@@AAEXXZ
    ?Close@WavWriter@webrtc@@AAEXXZ
    ?ComplexLength@RealFourier@webrtc@@SAIH@Z
    ?Compute@ComfortNoiseGenerator@webrtc@@QAEXABVAecState@2@ABV?$array@M$0EB@@std@@PAUFftData@2@2@Z
    ?Compute@MainFilterUpdateGain@webrtc@@QAEXABV?$array@M$0EB@@std@@ABVRenderSignalAnalyzer@2@ABUSubtractorOutput@2@ABVAdaptiveFirFilter@2@_NPAUFftData@2@@Z
    ?Compute@ShadowFilterUpdateGain@webrtc@@QAEXABV?$array@M$0EB@@std@@ABVRenderSignalAnalyzer@2@ABUFftData@2@I_NPAU62@@Z
    ?ComputeActiveFilterSections@SignalDependentErleEstimator@webrtc@@ABEXV?$ArrayView@I$0?BCGH@@rtc@@@Z
    ?ComputeAndPostProcessLpcCoefficients@rnn_vad@webrtc@@YAXV?$ArrayView@$$CBM$0?BCGH@@rtc@@V?$ArrayView@M$04@4@@Z
    ?ComputeAvgAndDerivatives@SpectralFeaturesExtractor@rnn_vad@webrtc@@AAEXV?$ArrayView@M$05@rtc@@00@Z
    ?ComputeBandBoundaryIndexes@rnn_vad@webrtc@@YA?AV?$array@I$0BG@@std@@II@Z
    ?ComputeBandCoefficients@rnn_vad@webrtc@@YAXV?$FunctionView@$$A6AMI@Z@rtc@@V?$ArrayView@$$CBI$0BG@@4@IV?$ArrayView@M$0BG@@4@@Z
    ?ComputeBandEnergies@rnn_vad@webrtc@@YAXV?$ArrayView@$$CBV?$complex@M@std@@$0?BCGH@@rtc@@V?$ArrayView@$$CBI$0BG@@4@V?$ArrayView@M$0BG@@4@@Z
    ?ComputeCrossCorrelation@SpectralFeaturesExtractor@rnn_vad@webrtc@@AAEXV?$ArrayView@M$05@rtc@@@Z
    ?ComputeDct@rnn_vad@webrtc@@YAXV?$ArrayView@$$CBM$0BG@@rtc@@V?$ArrayView@$$CBM$0BOE@@4@V?$ArrayView@M$0?BCGH@@4@@Z
    ?ComputeDctTable@rnn_vad@webrtc@@YA?AV?$array@M$0BOE@@std@@XZ
    ?ComputeEchoEstimatePerFilterSection@SignalDependentErleEstimator@webrtc@@AAEXABVRenderBuffer@2@ABV?$vector@V?$array@M$0EB@@std@@V?$allocator@V?$array@M$0EB@@std@@@2@@std@@@Z
    ?ComputeLevel@FixedDigitalLevelEstimator@webrtc@@QAE?AV?$array@M$0BE@@std@@ABV?$AudioFrameView@$$CBM@2@@Z
    ?ComputeLogBandEnergiesCoefficients@rnn_vad@webrtc@@YAXV?$ArrayView@$$CBM$0BG@@rtc@@V?$ArrayView@M$0BG@@4@@Z
    ?ComputeLpResidual@rnn_vad@webrtc@@YAXV?$ArrayView@$$CBM$04@rtc@@V?$ArrayView@$$CBM$0?BCGH@@4@V?$ArrayView@M$0?BCGH@@4@@Z
    ?ComputeMetrics@SubtractorOutput@webrtc@@QAEXV?$ArrayView@$$CBM$0?BCGH@@rtc@@@Z
    ?ComputeNumberOfActiveFilterSections@SignalDependentErleEstimator@webrtc@@AAEXABVRenderBuffer@2@ABV?$vector@V?$array@M$0EB@@std@@V?$allocator@V?$array@M$0EB@@std@@@2@@std@@V?$ArrayView@I$0?BCGH@@rtc@@@Z
    ?ComputeOutput@FullyConnectedLayer@rnn_vad@webrtc@@QAEXV?$ArrayView@$$CBM$0?BCGH@@rtc@@@Z
    ?ComputeOutput@GatedRecurrentLayer@rnn_vad@webrtc@@QAEXV?$ArrayView@$$CBM$0?BCGH@@rtc@@@Z
    ?ComputePitchAutoCorrelation@rnn_vad@webrtc@@YAXV?$ArrayView@$$CBM$0BLA@@rtc@@IV?$ArrayView@M$0JD@@4@PAVRealFourier@2@@Z
    ?ComputePitchGainThreshold@rnn_vad@webrtc@@YAMHHHMHM@Z
    ?ComputeResamplerMode@Resampler@webrtc@@CAHHHPAW4ResamplerMode@12@@Z
    ?ComputeSlidingFrameSquareEnergies@rnn_vad@webrtc@@YAXV?$ArrayView@$$CBM$0DGA@@rtc@@V?$ArrayView@M$0BIB@@4@@Z
    ?ComputeVadProbability@RnnBasedVad@rnn_vad@webrtc@@QAEMV?$ArrayView@$$CBM$0CK@@rtc@@_N@Z
    ?ComputeVariability@SpectralFeaturesExtractor@rnn_vad@webrtc@@AAEMXZ
    ?Configure@EchoCancellationImpl@webrtc@@AAEHXZ
    ?Configure@EchoControlMobileImpl@webrtc@@AAEHXZ
    ?Configure@GainControlImpl@webrtc@@AAEHXZ
    ?ConfigureLogging@LogMessage@rtc@@SAXPBD@Z
    ?Constrain@AdaptiveFirFilter@webrtc@@AAEXXZ
    ?Control@IsacFloat@webrtc@@SAFPAUWebRtcISACStruct@@HH@Z
    ?ControlBwe@IsacFloat@webrtc@@SAFPAUWebRtcISACStruct@@HHF@Z
    ?Convert@CompositionConverter@webrtc@@UAEXPBQBMIPBQAMI@Z
    ?Convert@CopyConverter@webrtc@@UAEXPBQBMIPBQAMI@Z
    ?Convert@DownmixConverter@webrtc@@UAEXPBQBMIPBQAMI@Z
    ?Convert@ResampleConverter@webrtc@@UAEXPBQBMIPBQAMI@Z
    ?Convert@UpmixConverter@webrtc@@UAEXPBQBMIPBQAMI@Z
    ?ConvertToLinearIndex@VadCircularBuffer@webrtc@@ABEHPAH@Z
    ?Convolve_C@SincResampler@webrtc@@CAMPBM00N@Z
    ?Convolve_SSE@SincResampler@webrtc@@CAMPBM00N@Z
    ?Copy@I420Buffer@webrtc@@SA?AV?$scoped_refptr@VI420Buffer@webrtc@@@rtc@@ABVI420BufferInterface@2@@Z
    ?Copy@I420Buffer@webrtc@@SA?AV?$scoped_refptr@VI420Buffer@webrtc@@@rtc@@HHPBEH0H0H@Z
    ?CopyFrom@AudioBuffer@webrtc@@QAEXPBQBMABVStreamConfig@2@@Z
    ?CopyFrom@AudioFrame@webrtc@@QAEXABV12@@Z
    ?CopyLowPassToReference@AudioBuffer@webrtc@@QAEXXZ
    ?CopyLumaOnMargin@VideoDenoiser@webrtc@@AAEXPBEHPAEH@Z
    ?CopyMem16x16@DenoiserFilterC@webrtc@@UAEXPBEHPAEH@Z
    ?CopyMem16x16@DenoiserFilterSSE2@webrtc@@UAEXPBEHPAEH@Z
    ?CopySrcOnMOB@VideoDenoiser@webrtc@@AAEXPBEHPAEH@Z
    ?CopyTo@AudioBuffer@webrtc@@QAEXABVStreamConfig@2@PBQAM@Z
    ?Create@AecDumpFactory@webrtc@@SA?AV?$unique_ptr@VAecDump@webrtc@@U?$default_delete@VAecDump@webrtc@@@std@@@std@@PAU_iobuf@@_JPAVTaskQueue@rtc@@@Z
    ?Create@AecDumpFactory@webrtc@@SA?AV?$unique_ptr@VAecDump@webrtc@@U?$default_delete@VAecDump@webrtc@@@std@@@std@@PAX_JPAVTaskQueue@rtc@@@Z
    ?Create@AecDumpFactory@webrtc@@SA?AV?$unique_ptr@VAecDump@webrtc@@U?$default_delete@VAecDump@webrtc@@@std@@@std@@V?$basic_string@DU?$char_traits@D@std@@V?$allocator@D@2@@4@_JPAVTaskQueue@rtc@@@Z
    ?Create@AudioConverter@webrtc@@SA?AV?$unique_ptr@VAudioConverter@webrtc@@U?$default_delete@VAudioConverter@webrtc@@@std@@@std@@IIII@Z
    ?Create@AudioProcessingBuilder@webrtc@@QAEPAVAudioProcessing@2@ABVConfig@2@@Z
    ?Create@AudioProcessingBuilder@webrtc@@QAEPAVAudioProcessing@2@XZ
    ?Create@BlockProcessor@webrtc@@SAPAV12@ABUEchoCanceller3Config@2@H@Z
    ?Create@BlockProcessor@webrtc@@SAPAV12@ABUEchoCanceller3Config@2@HV?$unique_ptr@VRenderDelayBuffer@webrtc@@U?$default_delete@VRenderDelayBuffer@webrtc@@@std@@@std@@@Z
    ?Create@BlockProcessor@webrtc@@SAPAV12@ABUEchoCanceller3Config@2@HV?$unique_ptr@VRenderDelayBuffer@webrtc@@U?$default_delete@VRenderDelayBuffer@webrtc@@@std@@@std@@V?$unique_ptr@VRenderDelayController@webrtc@@U?$default_delete@VRenderDelayController@webrtc@@@std@@@5@V?$unique_ptr@VEchoRemover@webrtc@@U?$default_delete@VEchoRemover@webrtc@@@std@@@5@@Z
    ?Create@DenoiserFilter@webrtc@@SA?AV?$unique_ptr@VDenoiserFilter@webrtc@@U?$default_delete@VDenoiserFilter@webrtc@@@std@@@std@@_NPAW4CpuType@2@@Z
    ?Create@EchoRemover@webrtc@@SAPAV12@ABUEchoCanceller3Config@2@H@Z
    ?Create@I420Buffer@webrtc@@SA?AV?$scoped_refptr@VI420Buffer@webrtc@@@rtc@@HH@Z
    ?Create@I420Buffer@webrtc@@SA?AV?$scoped_refptr@VI420Buffer@webrtc@@@rtc@@HHHHH@Z
    ?Create@IsacFloat@webrtc@@SAFPAPAUWebRtcISACStruct@@@Z
    ?Create@LoudnessHistogram@webrtc@@SAPAV12@H@Z
    ?Create@LoudnessHistogram@webrtc@@SAPAV12@XZ
    ?Create@PoleZeroFilter@webrtc@@SAPAV12@PBMI0I@Z
    ?Create@RealFourier@webrtc@@SA?AV?$unique_ptr@VRealFourier@webrtc@@U?$default_delete@VRealFourier@webrtc@@@std@@@std@@H@Z
    ?Create@RenderDelayBuffer@webrtc@@SAPAV12@ABUEchoCanceller3Config@2@I@Z
    ?Create@RenderDelayController@webrtc@@SAPAV12@ABUEchoCanceller3Config@2@H@Z
    ?Create@StandaloneVad@webrtc@@SAPAV12@XZ
    ?Create@VadCircularBuffer@webrtc@@SAPAV12@H@Z
    ?CreateBuffer@I420BufferPool@webrtc@@QAE?AV?$scoped_refptr@VI420Buffer@webrtc@@@rtc@@HH@Z
    ?CreateFirFilter@webrtc@@YAPAVFIRFilter@1@PBMII@Z
    ?CreateVad@webrtc@@YA?AV?$unique_ptr@VVad@webrtc@@U?$default_delete@VVad@webrtc@@@std@@@std@@W4Aggressiveness@Vad@1@@Z
    ?CropAndScaleFrom@I420Buffer@webrtc@@QAEXABVI420BufferInterface@2@@Z
    ?CropAndScaleFrom@I420Buffer@webrtc@@QAEXABVI420BufferInterface@2@HHHH@Z
    ?CurrentRms@LoudnessHistogram@webrtc@@QBENXZ
    ?CurrentThreadId@rtc@@YAKXZ
    ?CurrentThreadIsOwner@CriticalSection@rtc@@ABE_NXZ
    ?CurrentThreadRef@rtc@@YAKXZ
    ?DataU@I420Buffer@webrtc@@UBEPBEXZ
    ?DataV@I420Buffer@webrtc@@UBEPBEXZ
    ?DataY@I420Buffer@webrtc@@UBEPBEXZ
    ?Db2Loudness@@YANN@Z
    ?Dbfs2Loudness@@YANN@Z
    ?DebugDumpEstimate@AdaptiveModeLevelEstimator@webrtc@@AAEXXZ
    ?DebugDumpEstimate@SaturationProtector@webrtc@@QBEXXZ
    ?Decimate2x@rnn_vad@webrtc@@YAXV?$ArrayView@$$CBM$0DGA@@rtc@@V?$ArrayView@M$0BLA@@4@@Z
    ?Decimate@Decimator@webrtc@@QAEXV?$ArrayView@$$CBM$0?BCGH@@rtc@@V?$ArrayView@M$0?BCGH@@4@@Z
    ?DecodeInternal@?$AudioDecoderIsacT@UIsacFloat@webrtc@@@webrtc@@UAEHPBEIHPAFPAW4SpeechType@AudioDecoder@2@@Z
    ?DecodePlc@?$AudioDecoderIsacT@UIsacFloat@webrtc@@@webrtc@@UAEIIPAF@Z
    ?DecodeToBuffers@MJpegDecoder@libyuv@@QAEHPAPAEHH@Z
    ?DecodeToCallback@MJpegDecoder@libyuv@@QAEHP6AXPAXPBQBEPBHH@Z0HH@Z
    ?DecreaseErlePerBandForLowRenderSignals@SubbandErleEstimator@webrtc@@AAEXXZ
    ?DeinterleaveFrom@AudioBuffer@webrtc@@QAEXPAVAudioFrame@2@@Z
    ?DelaySignal@BlockDelayBuffer@webrtc@@QAEXPAVAudioBuffer@2@@Z
    ?DenoiseFrame@VideoDenoiser@webrtc@@QAE?AV?$scoped_refptr@VI420BufferInterface@webrtc@@@rtc@@V34@_N@Z
    ?DenoiserReset@VideoDenoiser@webrtc@@AAEXV?$scoped_refptr@VI420BufferInterface@webrtc@@@rtc@@@Z
    ?DestroyOutputBuffers@MJpegDecoder@libyuv@@AAEXXZ
    ?DetachAecDump@AudioProcessingImpl@webrtc@@UAEXXZ
    ?DetachFromThread@ThreadCheckerImpl@rtc@@QAEXXZ
    ?DetachPlayoutAudioGenerator@AudioProcessingImpl@webrtc@@UAEXXZ
    ?Detect@ConsistentFilterDetector@FilterAnalyzer@webrtc@@QAE_NV?$ArrayView@$$CBM$0?BCGH@@rtc@@ABUFilterRegion@23@0IH@Z
    ?Detect@LowNoiseRenderDetector@SuppressionGain@webrtc@@QAE_NABV?$vector@V?$vector@MV?$allocator@M@std@@@std@@V?$allocator@V?$vector@MV?$allocator@M@std@@@std@@@2@@std@@@Z
    ?Detect@TransientDetector@webrtc@@QAEMPBMI0I@Z
    ?DetectNumberOfCores@CpuInfo@webrtc@@SAIXZ
    ?DetectOptimization@webrtc@@YA?AW4Aec3Optimization@1@XZ
    ?DownModulate@ThreeBandFilterBank@webrtc@@AAEXPBMIIPBQAM@Z
    ?DownSample@DownSampler@webrtc@@QAEXV?$ArrayView@$$CBM$0?BCGH@@rtc@@V?$ArrayView@M$0?BCGH@@4@@Z
    ?DownmixChannels@AudioFrameOperations@webrtc@@SAXIPAVAudioFrame@2@@Z
    ?DownmixChannels@AudioFrameOperations@webrtc@@SAXPBFIIIPAF@Z
    ?DummyFunction@?$AtomicHook@P6AXPBDH000@Z@base_internal@absl@@CAXPBDH000@Z
    ?DummyFunction@?$AtomicHook@P6A_NW4LogSeverity@absl@@PBDHPAPADPAH@Z@base_internal@absl@@CA_NW4LogSeverity@3@PBDHPAPADPAH@Z
    ?Dump@EarlyReverbLengthEstimator@ReverbDecayEstimator@webrtc@@QBEXPAVApmDataDumper@3@@Z
    ?Dump@ErleEstimator@webrtc@@QBEXABV?$unique_ptr@VApmDataDumper@webrtc@@U?$default_delete@VApmDataDumper@webrtc@@@std@@@std@@@Z
    ?Dump@ErleInstantaneous@FullBandErleEstimator@webrtc@@QBEXABV?$unique_ptr@VApmDataDumper@webrtc@@U?$default_delete@VApmDataDumper@webrtc@@@std@@@std@@@Z
    ?Dump@FilterMisadjustmentEstimator@Subtractor@webrtc@@QBEXPAVApmDataDumper@3@@Z
    ?Dump@FullBandErleEstimator@webrtc@@QBEXABV?$unique_ptr@VApmDataDumper@webrtc@@U?$default_delete@VApmDataDumper@webrtc@@@std@@@std@@@Z
    ?Dump@ReverbDecayEstimator@webrtc@@QBEXPAVApmDataDumper@2@@Z
    ?Dump@SignalDependentErleEstimator@webrtc@@QBEXABV?$unique_ptr@VApmDataDumper@webrtc@@U?$default_delete@VApmDataDumper@webrtc@@@std@@@std@@@Z
    ?Dump@SubbandErleEstimator@webrtc@@QBEXABV?$unique_ptr@VApmDataDumper@webrtc@@U?$default_delete@VApmDataDumper@webrtc@@@std@@@std@@@Z
    ?DumpFilter@AdaptiveFirFilter@webrtc@@QAEXPBD0@Z
    ?EchoGeneratingPower@ResidualEchoEstimator@webrtc@@ABEXABUVectorBuffer@2@ABUEchoModel@EchoCanceller3Config@2@HH_NPAV?$array@M$0EB@@std@@@Z
    ?ElapsedProfileTimeMs@AudioFrame@webrtc@@QBE_JXZ
    ?EmptyQueuedRenderAudio@AudioProcessingImpl@webrtc@@AAEXXZ
    ?EmptyRenderQueue@EchoCanceller3@webrtc@@AAEXXZ
    ?Enable@EchoCancellationImpl@webrtc@@QAEH_N@Z
    ?Enable@EchoControlMobileImpl@webrtc@@QAEH_N@Z
    ?Enable@GainControlForExperimentalAgc@webrtc@@UAEH_N@Z
    ?Enable@GainControlImpl@webrtc@@EAEH_N@Z
    ?Enable@LevelEstimatorImpl@webrtc@@UAEH_N@Z
    ?Enable@NoiseSuppressionImpl@webrtc@@UAEH_N@Z
    ?Enable@NoiseSuppressionProxy@webrtc@@UAEH_N@Z
    ?Enable@VoiceDetectionImpl@webrtc@@UAEH_N@Z
    ?Enable@metrics@webrtc@@YAXXZ
    ?EncodeImpl@?$AudioEncoderIsacT@UIsacFloat@webrtc@@@webrtc@@UAE?AUEncodedInfo@AudioEncoder@2@IV?$ArrayView@$$CBF$0?BCGH@@rtc@@PAV?$BufferT@E$0A@@6@@Z
    ?EncoderInit@IsacFloat@webrtc@@SAFPAUWebRtcISACStruct@@F@Z
    ?EndOfBlock@BlockMeanCalculator@webrtc@@QBE_NXZ
    ?EndToEndDelay@TimingFrameInfo@webrtc@@QBE_JXZ
    ?Enqueue@RuntimeSettingEnqueuer@AudioProcessingImpl@webrtc@@QAEXVRuntimeSetting@AudioProcessing@3@@Z
    ?EnsureCapacityWithHeadroom@?$BufferT@E$0A@@rtc@@AAEXI_N@Z
    ?Enter@CriticalSection@rtc@@QBEXXZ
    ?ErleUncertainty@AecState@webrtc@@QBE?AV?$optional@M@absl@@XZ
    ?ErrorCode@?$AudioDecoderIsacT@UIsacFloat@webrtc@@@webrtc@@UAEHXZ
    ?ErrorHandler@libyuv@@YAXPAUjpeg_common_struct@@@Z
    ?Estimate@EarlyReverbLengthEstimator@ReverbDecayEstimator@webrtc@@QAEHXZ
    ?Estimate@LateReverbLinearRegressor@ReverbDecayEstimator@webrtc@@QAEMXZ
    ?Estimate@PitchEstimator@rnn_vad@webrtc@@QAE?AUPitchInfo@23@V?$ArrayView@$$CBM$0DGA@@rtc@@@Z
    ?Estimate@ResidualEchoEstimator@webrtc@@QAEXABVAecState@2@ABVRenderBuffer@2@ABV?$array@M$0EB@@std@@2PAV56@@Z
    ?EstimateBandStationarity@StationarityEstimator@webrtc@@ABE_NABUVectorBuffer@2@V?$ArrayView@$$CBM$0?BCGH@@rtc@@ABV?$array@H$0N@@std@@I@Z
    ?EstimateDecay@ReverbDecayEstimator@webrtc@@AAEXV?$ArrayView@$$CBM$0?BCGH@@rtc@@H@Z
    ?EstimateDelay@EchoPathDelayEstimator@webrtc@@QAE?AV?$optional@UDelayEstimate@webrtc@@@absl@@ABUDownsampledRenderBuffer@2@V?$ArrayView@$$CBM$0?BCGH@@rtc@@@Z
    ?EvaluateGmm@webrtc@@YANPBNABUGmmParameters@1@@Z
    ?ExitInitialState@Subtractor@webrtc@@QAEXXZ
    ?ExtendFrame@FrameExtender@SignalClassifier@webrtc@@QAEXV?$ArrayView@$$CBM$0?BCGH@@rtc@@V?$ArrayView@M$0?BCGH@@5@@Z
    ?ExtractBlock@FrameBlocker@webrtc@@QAEXPAV?$vector@V?$vector@MV?$allocator@M@std@@@std@@V?$allocator@V?$vector@MV?$allocator@M@std@@@std@@@2@@std@@@Z
    ?ExtractExtendedBlock@BlockBuffer@webrtc@@QAEXQAM@Z
    ?ExtractFeatures@VadAudioProc@webrtc@@QAEHPBFIPAUAudioFeatures@@@Z
    ?ExtrapolateLastSample@SmoothingFilterImpl@webrtc@@AAEX_J@Z
    ?FastApproxLog2f@webrtc@@YAMM@Z
    ?FatalLog@webrtc_checks_impl@rtc@@YAXPBDH0PBW4CheckArgType@12@ZZ
    ?Fft@Aec3Fft@webrtc@@QBEXPAV?$array@M$0IA@@std@@PAUFftData@2@@Z
    ?Fft@OouraFft@webrtc@@QBEXPAM@Z
    ?FftLength@RealFourier@webrtc@@SAIH@Z
    ?FftOrder@RealFourier@webrtc@@SAHI@Z
    ?Filter@AdaptiveFirFilter@webrtc@@QBEXABVRenderBuffer@2@PAUFftData@2@@Z
    ?Filter@FIRFilterC@webrtc@@UAEXPBMIPAM@Z
    ?Filter@FIRFilterSSE2@webrtc@@UAEXPBMIPAM@Z
    ?Filter@PoleZeroFilter@webrtc@@QAEHPBFIPAM@Z
    ?Filter@SparseFIRFilter@webrtc@@QAEXPBMIPAM@Z
    ?FindBestPitchPeriods@rnn_vad@webrtc@@YA?AV?$array@I$01@std@@V?$ArrayView@$$CBM$0?BCGH@@rtc@@0I@Z
    ?FindFirstSpectralPeaks@VadAudioProc@webrtc@@AAEXPANI@Z
    ?FindFullName@field_trial@webrtc@@YA?AV?$basic_string@DU?$char_traits@D@std@@V?$allocator@D@2@@std@@ABV34@@Z
    ?FinishDecode@MJpegDecoder@libyuv@@AAEHXZ
    ?FinishPrintStream@LogMessage@rtc@@AAEXXZ
    ?FloatS16ToFloat@webrtc@@YAXPBMIPAM@Z
    ?FloatS16ToS16@webrtc@@YAXPBMIPAF@Z
    ?FloatToFloatS16@webrtc@@YAXPBMIPAM@Z
    ?FloatToS16@webrtc@@YAXPBMIPAF@Z
    ?Flush@SincResampler@webrtc@@QAEXXZ
    ?FormNearendBlock@webrtc@@YAXIIPBQBMIQAY0DA@$$CBMQAY0EA@M@Z
    ?FormOutputFrame@webrtc@@YAXIIPAIQAY0IA@MPBQAM@Z
    ?Forward@RealFourierOoura@webrtc@@UBEXPBMPAV?$complex@M@std@@@Z
    ?ForwardFft@BandAnalysisFft@rnn_vad@webrtc@@QAEXV?$ArrayView@$$CBM$0?BCGH@@rtc@@V?$ArrayView@V?$complex@M@std@@$0?BCGH@@5@@Z
    ?ForwardFft@KissFft@rnnoise@@QAEXIPBV?$complex@M@std@@IPAV34@@Z
    ?Free@IsacFloat@webrtc@@SAFPAUWebRtcISACStruct@@@Z
    ?FromString@rtc@@YA_NABV?$basic_string@DU?$char_traits@D@std@@V?$allocator@D@2@@std@@PA_N@Z
    ?GainToNoAudibleEcho@SuppressionGain@webrtc@@ABEXABV?$array@M$0EB@@std@@0000PAV34@@Z
    ?Get@VadCircularBuffer@webrtc@@ABEHHPAN@Z
    ?GetActivity@StandaloneVad@webrtc@@QAEHPANI@Z
    ?GetAlpha@NoiseSpectrum@StationarityEstimator@webrtc@@ABEMXZ
    ?GetAndReset@metrics@webrtc@@YAXPAV?$map@V?$basic_string@DU?$char_traits@D@std@@V?$allocator@D@2@@std@@V?$unique_ptr@USampleInfo@metrics@webrtc@@U?$default_delete@USampleInfo@metrics@webrtc@@@std@@@2@U?$less@V?$basic_string@DU?$char_traits@D@std@@V?$allocator@D@2@@std@@@2@V?$allocator@U?$pair@$$CBV?$basic_string@DU?$char_traits@D@std@@V?$allocator@D@2@@std@@V?$unique_ptr@USampleInfo@metrics@webrtc@@U?$default_delete@USampleInfo@metrics@webrtc@@@std@@@2@@std@@@2@@std@@@Z
    ?GetAverage@SmoothingFilterImpl@webrtc@@UAE?AV?$optional@M@absl@@XZ
    ?GetBinIndex@LoudnessHistogram@webrtc@@AAEHN@Z
    ?GetCPUInfoNoASM@@YAHW4CPUFeature@@@Z
    ?GetCategoryEnabled@EventTracer@webrtc@@SAPBEPBD@Z
    ?GetClockForTesting@rtc@@YAPAVClockInterface@1@XZ
    ?GetColorSpace@MJpegDecoder@libyuv@@QAEHXZ
    ?GetComponentHeight@MJpegDecoder@libyuv@@QAEHH@Z
    ?GetComponentScanlinesPerImcuRow@MJpegDecoder@libyuv@@QAEHH@Z
    ?GetComponentSize@MJpegDecoder@libyuv@@QAEHH@Z
    ?GetComponentStride@MJpegDecoder@libyuv@@QAEHH@Z
    ?GetComponentWidth@MJpegDecoder@libyuv@@QAEHH@Z
    ?GetConfig@AudioProcessingImpl@webrtc@@UBE?AUConfig@AudioProcessing@2@XZ
    ?GetDelayMetrics@EchoCancellationImpl@webrtc@@QAEHPAH0@Z
    ?GetDelayMetrics@EchoCancellationImpl@webrtc@@QAEHPAH0PAM@Z
    ?GetDeltaCappedMs@VideoSendTiming@webrtc@@SAG_J0@Z
    ?GetErrorCode@IsacFloat@webrtc@@SAFPAUWebRtcISACStruct@@@Z
    ?GetExperimentId@videocontenttypehelpers@webrtc@@YAEABW4VideoContentType@2@@Z
    ?GetExperimentsDescription@EchoCancellationImpl@webrtc@@QAE?AV?$basic_string@DU?$char_traits@D@std@@V?$allocator@D@2@@std@@XZ
    ?GetExtraSaturationMarginOffsetDb@webrtc@@YAMXZ
    ?GetFieldTrialString@field_trial@webrtc@@YAPBDXZ
    ?GetGain@SuppressionGain@webrtc@@QAEXABV?$array@M$0EB@@std@@0000ABUFftData@2@1ABVRenderSignalAnalyzer@2@ABVAecState@2@ABV?$vector@V?$vector@MV?$allocator@M@std@@@std@@V?$allocator@V?$vector@MV?$allocator@M@std@@@std@@@2@@4@PAMPAV34@@Z
    ?GetGainCurveStats@Limiter@webrtc@@QBE?AUStats@InterpolatedGainCurve@2@XZ
    ?GetHeight@MJpegDecoder@libyuv@@QAEHXZ
    ?GetHorizSampFactor@MJpegDecoder@libyuv@@QAEHH@Z
    ?GetHorizSubSampFactor@MJpegDecoder@libyuv@@QAEHH@Z
    ?GetI010@VideoFrameBuffer@webrtc@@QAEPAVI010BufferInterface@2@XZ
    ?GetI010@VideoFrameBuffer@webrtc@@QBEPBVI010BufferInterface@2@XZ
    ?GetI420@VideoFrameBuffer@webrtc@@QAE?AV?$scoped_refptr@VI420BufferInterface@webrtc@@@rtc@@XZ
    ?GetI420@VideoFrameBuffer@webrtc@@QBE?AV?$scoped_refptr@$$CBVI420BufferInterface@webrtc@@@rtc@@XZ
    ?GetI420A@VideoFrameBuffer@webrtc@@QAEPAVI420ABufferInterface@2@XZ
    ?GetI420A@VideoFrameBuffer@webrtc@@QBEPBVI420ABufferInterface@2@XZ
    ?GetI444@VideoFrameBuffer@webrtc@@QAEPAVI444BufferInterface@2@XZ
    ?GetI444@VideoFrameBuffer@webrtc@@QBEPBVI444BufferInterface@2@XZ
    ?GetImageScanlinesPerImcuRow@MJpegDecoder@libyuv@@QAEHXZ
    ?GetInitialSaturationMarginDb@webrtc@@YAMXZ
    ?GetLatestFraction@DivergentFilterFraction@webrtc@@QBEMXZ
    ?GetLatestMean@BlockMeanCalculator@webrtc@@QBEMXZ
    ?GetLogToDebug@LogMessage@rtc@@SA?AW4LoggingSeverity@2@XZ
    ?GetLogToStream@LogMessage@rtc@@SAHPAVLogSink@2@@Z
    ?GetLpcPolynomials@VadAudioProc@webrtc@@AAEXPANI@Z
    ?GetMaxGain@SuppressionGain@webrtc@@ABEXV?$ArrayView@M$0?BCGH@@rtc@@@Z
    ?GetMetrics@EchoCancellationImpl@webrtc@@QAEHPAUMetrics@12@@Z
    ?GetMetrics@EchoCanceller3@webrtc@@UBE?AUMetrics@EchoControl@2@XZ
    ?GetMetrics@ResidualEchoDetector@webrtc@@UBE?AUMetrics@EchoDetector@2@XZ
    ?GetMicVolume@GainControlForExperimentalAgc@webrtc@@UAEHXZ
    ?GetMinGain@SuppressionGain@webrtc@@ABEXV?$ArrayView@$$CBM$0?BCGH@@rtc@@0_N1V?$ArrayView@M$0?BCGH@@4@@Z
    ?GetMinLogSeverity@LogMessage@rtc@@SAHXZ
    ?GetNoise@NoiseEstimation@webrtc@@QAEXHII@Z
    ?GetNoiseLevel@NoiseEstimation@webrtc@@QAEEXZ
    ?GetNumComponents@MJpegDecoder@libyuv@@QAEHXZ
    ?GetOutput@FullyConnectedLayer@rnn_vad@webrtc@@QBE?AV?$ArrayView@$$CBM$0?BCGH@@rtc@@XZ
    ?GetOutput@GatedRecurrentLayer@rnn_vad@webrtc@@QBE?AV?$ArrayView@$$CBM$0?BCGH@@rtc@@XZ
    ?GetResidualEchoScaling@AecState@webrtc@@QBEXV?$ArrayView@M$0?BCGH@@rtc@@@Z
    ?GetRightAlign@webrtc@@YAIII@Z
    ?GetRightAlign@webrtc@@YAPAXPBXI@Z
    ?GetRmsErrorDb@AdaptiveModeLevelEstimatorAgc@webrtc@@UAE_NPAH@Z
    ?GetRmsErrorDb@Agc@webrtc@@UAE_NPAH@Z
    ?GetSimulcastId@videocontenttypehelpers@webrtc@@YAEABW4VideoContentType@2@@Z
    ?GetSkewFromCapture@SkewEstimator@webrtc@@QAE?AV?$optional@H@absl@@XZ
    ?GetStatistics@AudioProcessingImpl@webrtc@@UBE?AUAudioProcessingStats@2@_N@Z
    ?GetSubframesPitchParameters@@YAXHPAN0HH0000@Z
    ?GetSystemDelayInSamples@EchoCancellationImpl@webrtc@@QBEHXZ
    ?GetTargetBitrate@?$AudioEncoderIsacT@UIsacFloat@webrtc@@@webrtc@@UBEHXZ
    ?GetThreadRef@PlatformThread@rtc@@QBEKXZ
    ?GetVertSampFactor@MJpegDecoder@libyuv@@QAEHH@Z
    ?GetVertSubSampFactor@MJpegDecoder@libyuv@@QAEHH@Z
    ?GetWidth@MJpegDecoder@libyuv@@QAEHXZ
    ?HandleCaptureRuntimeSettings@AudioProcessingImpl@webrtc@@AAEXXZ
    ?HandleEchoPathChange@AdaptiveFirFilter@webrtc@@QAEXXZ
    ?HandleEchoPathChange@AecState@webrtc@@QAEXABUEchoPathVariability@2@@Z
    ?HandleEchoPathChange@MainFilterUpdateGain@webrtc@@QAEXABUEchoPathVariability@2@@Z
    ?HandleEchoPathChange@ShadowFilterUpdateGain@webrtc@@QAEXXZ
    ?HandleEchoPathChange@Subtractor@webrtc@@QAEXABUEchoPathVariability@2@@Z
    ?HandleEchoPathChange@SubtractorOutputAnalyzer@webrtc@@QAEXXZ
    ?HandleRenderRuntimeSettings@AudioProcessingImpl@webrtc@@AAEXXZ
    ?Hanning@WindowGenerator@webrtc@@SAXHPAM@Z
    ?HardRestoration@TransientSuppressor@webrtc@@AAEXPAM@Z
    ?HasDecodePlc@?$AudioDecoderIsacT@UIsacFloat@webrtc@@@webrtc@@UBE_NXZ
    ?HasOneRef@?$RefCountedObject@VAudioProcessingImpl@webrtc@@@rtc@@UBE_NXZ
    ?HasOneRef@?$RefCountedObject@VI420Buffer@webrtc@@@rtc@@UBE_NXZ
    ?HasOneRef@?$RefCountedObject@VResidualEchoDetector@webrtc@@@rtc@@UBE_NXZ
    ?HistogramAdd@metrics@webrtc@@YAXPAVHistogram@12@H@Z
    ?HistogramFactoryGetCounts@metrics@webrtc@@YAPAVHistogram@12@ABV?$basic_string@DU?$char_traits@D@std@@V?$allocator@D@2@@std@@HHH@Z
    ?HistogramFactoryGetCountsLinear@metrics@webrtc@@YAPAVHistogram@12@ABV?$basic_string@DU?$char_traits@D@std@@V?$allocator@D@2@@std@@HHH@Z
    ?HistogramFactoryGetEnumeration@metrics@webrtc@@YAPAVHistogram@12@ABV?$basic_string@DU?$char_traits@D@std@@V?$allocator@D@2@@std@@H@Z
    ?Ifft@Aec3Fft@webrtc@@QBEXABUFftData@2@PAV?$array@M$0IA@@std@@@Z
    ?IncomingPacket@?$AudioDecoderIsacT@UIsacFloat@webrtc@@@webrtc@@UAEHPBEIGII@Z
    ?Init@NoiseEstimation@webrtc@@QAEXHHW4CpuType@2@@Z
    ?InitFieldTrialsFromString@field_trial@webrtc@@YAXPBD@Z
    ?InitForNewData@AudioBuffer@webrtc@@AAEXXZ
    ?Initialize@AgcManagerDirect@webrtc@@QAEHXZ
    ?Initialize@AudioProcessingImpl@webrtc@@UAEHABVProcessingConfig@2@@Z
    ?Initialize@AudioProcessingImpl@webrtc@@UAEHHHHW4ChannelLayout@AudioProcessing@2@00@Z
    ?Initialize@AudioProcessingImpl@webrtc@@UAEHXZ
    ?Initialize@DownSampler@webrtc@@QAEXH@Z
    ?Initialize@EchoCancellationImpl@webrtc@@QAEXHIII@Z
    ?Initialize@EchoControlMobileImpl@webrtc@@QAEXHII@Z
    ?Initialize@GainApplier@webrtc@@AAEXI@Z
    ?Initialize@GainControlForExperimentalAgc@webrtc@@QAEXXZ
    ?Initialize@GainControlImpl@webrtc@@QAEXIH@Z
    ?Initialize@GainController2@webrtc@@QAEXH@Z
    ?Initialize@LevelEstimatorImpl@webrtc@@QAEXXZ
    ?Initialize@NoiseLevelEstimator@webrtc@@AAEXH@Z
    ?Initialize@NoiseSpectrumEstimator@webrtc@@QAEXXZ
    ?Initialize@NoiseSuppressionImpl@webrtc@@QAEXIH@Z
    ?Initialize@ResidualEchoDetector@webrtc@@UAEXHHHH@Z
    ?Initialize@SignalClassifier@webrtc@@QAEXH@Z
    ?Initialize@TransientSuppressor@webrtc@@QAEHHHH@Z
    ?Initialize@VoiceDetectionImpl@webrtc@@QAEXH@Z
    ?InitializeAnalyzer@AudioProcessingImpl@webrtc@@AAEXXZ
    ?InitializeCPUSpecificFeatures@SincResampler@webrtc@@AAEXXZ
    ?InitializeData@I420Buffer@webrtc@@QAEXXZ
    ?InitializeEchoController@AudioProcessingImpl@webrtc@@AAEXXZ
    ?InitializeGainController2@AudioProcessingImpl@webrtc@@AAEXXZ
    ?InitializeIfNeeded@?$PushResampler@F@webrtc@@QAEHHHI@Z
    ?InitializeIfNeeded@?$PushResampler@M@webrtc@@QAEHHHI@Z
    ?InitializeKernel@SincResampler@webrtc@@AAEXXZ
    ?InitializeLocked@AudioProcessingImpl@webrtc@@AAEHABVProcessingConfig@2@@Z
    ?InitializeLocked@AudioProcessingImpl@webrtc@@MAEHXZ
    ?InitializeLowCutFilter@AudioProcessingImpl@webrtc@@AAEXXZ
    ?InitializePostProcessor@AudioProcessingImpl@webrtc@@AAEXXZ
    ?InitializePreAmplifier@AudioProcessingImpl@webrtc@@AAEXXZ
    ?InitializePreProcessor@AudioProcessingImpl@webrtc@@AAEXXZ
    ?InitializeResidualEchoDetector@AudioProcessingImpl@webrtc@@AAEXXZ
    ?InitializeTransient@AudioProcessingImpl@webrtc@@AAEXXZ
    ?Insert@?$SwapQueue@V?$vector@FV?$allocator@F@std@@@std@@V?$RenderQueueItemVerifier@F@webrtc@@@webrtc@@QAE_NPAV?$vector@FV?$allocator@F@std@@@std@@@Z
    ?Insert@?$SwapQueue@V?$vector@MV?$allocator@M@std@@@std@@V?$RenderQueueItemVerifier@M@webrtc@@@webrtc@@QAE_NPAV?$vector@MV?$allocator@M@std@@@std@@@Z
    ?Insert@?$SwapQueue@V?$vector@V?$vector@MV?$allocator@M@std@@@std@@V?$allocator@V?$vector@MV?$allocator@M@std@@@std@@@2@@std@@VAec3RenderQueueItemVerifier@webrtc@@@webrtc@@QAE_NPAV?$vector@V?$vector@MV?$allocator@M@std@@@std@@V?$allocator@V?$vector@MV?$allocator@M@std@@@std@@@2@@std@@@Z
    ?Insert@?$SwapQueue@VRuntimeSetting@AudioProcessing@webrtc@@V?$SwapQueueItemVerifier@VRuntimeSetting@AudioProcessing@webrtc@@$1??$NoopSwapQueueItemVerifierFunction@VRuntimeSetting@AudioProcessing@webrtc@@@internal@3@YA_NABV123@@Z@3@@webrtc@@QAE_NPAVRuntimeSetting@AudioProcessing@2@@Z
    ?Insert@BlockBuffer@webrtc@@QAEXQBM@Z
    ?Insert@RenderWriter@EchoCanceller3@webrtc@@QAEXPAVAudioBuffer@3@@Z
    ?Insert@VadCircularBuffer@webrtc@@QAEXN@Z
    ?InsertBlock@BlockFramer@webrtc@@QAEXABV?$vector@V?$vector@MV?$allocator@M@std@@@std@@V?$allocator@V?$vector@MV?$allocator@M@std@@@std@@@2@@std@@@Z
    ?InsertBlockAndExtractSubFrame@BlockFramer@webrtc@@QAEXABV?$vector@V?$vector@MV?$allocator@M@std@@@std@@V?$allocator@V?$vector@MV?$allocator@M@std@@@std@@@2@@std@@PAV?$vector@V?$ArrayView@M$0?BCGH@@rtc@@V?$allocator@V?$ArrayView@M$0?BCGH@@rtc@@@std@@@4@@Z
    ?InsertNewestEntryAndUpdate@LoudnessHistogram@webrtc@@AAEXHH@Z
    ?InsertSubFrameAndExtractBlock@FrameBlocker@webrtc@@QAEXABV?$vector@V?$ArrayView@M$0?BCGH@@rtc@@V?$allocator@V?$ArrayView@M$0?BCGH@@rtc@@@std@@@std@@PAV?$vector@V?$vector@MV?$allocator@M@std@@@std@@V?$allocator@V?$vector@MV?$allocator@M@std@@@std@@@2@@4@@Z
    ?InterleaveTo@AudioBuffer@webrtc@@QBEXPAVAudioFrame@2@_N@Z
    ?Intersect@UpdateRect@VideoFrame@webrtc@@QAEXABU123@@Z
    ?Inverse@RealFourierOoura@webrtc@@UBEXPBV?$complex@M@std@@PAM@Z
    ?InverseFft@OouraFft@webrtc@@QBEXPAM@Z
    ?IsBlockAvailable@FrameBlocker@webrtc@@QBE_NXZ
    ?IsBlockStationary@StationarityEstimator@webrtc@@QBE_NXZ
    ?IsEmpty@UpdateRect@VideoFrame@webrtc@@QBE_NXZ
    ?IsInvalid@TimingFrameInfo@webrtc@@QBE_NXZ
    ?IsLongerThan@TimingFrameInfo@webrtc@@QBE_NABU12@@Z
    ?IsNoop@LogMessage@rtc@@SA_NW4LoggingSeverity@2@@Z
    ?IsOk@Config@?$AudioEncoderIsacT@UIsacFloat@webrtc@@@webrtc@@QBE_NXZ
    ?IsOutlier@TimingFrameInfo@webrtc@@QBE_NXZ
    ?IsRenderTooLow@EchoAudibility@webrtc@@AAE_NABUMatrixBuffer@2@@Z
    ?IsRunning@PlatformThread@rtc@@QBE_NXZ
    ?IsScreenshare@videocontenttypehelpers@webrtc@@YA_NABW4VideoContentType@2@@Z
    ?IsThreadRefEqual@rtc@@YA_NABK0@Z
    ?IsTimerTriggered@TimingFrameInfo@webrtc@@QBE_NXZ
    ?IsTrailingBlock@VideoDenoiser@webrtc@@AAE_NABV?$unique_ptr@$$BY0A@EU?$default_delete@$$BY0A@E@std@@@std@@HH@Z
    ?IsValidContentType@videocontenttypehelpers@webrtc@@YA_NE@Z
    ?JpegSubsamplingTypeHelper@MJpegDecoder@libyuv@@SA?AW4JpegSubsamplingType@2@PAH0H@Z
    ?KaiserBesselDerived@WindowGenerator@webrtc@@SAXMIPAM@Z
    ?LastAudioLevel@Limiter@webrtc@@QBEMXZ
    ?LastMargin@SaturationProtector@webrtc@@QBEMXZ
    ?LatestLevelEstimate@AdaptiveModeLevelEstimator@webrtc@@QBEMXZ
    ?Leave@CriticalSection@rtc@@QBEXXZ
    ?LeftPad@rtc@@YA?AV?$basic_string@DU?$char_traits@D@std@@V?$allocator@D@2@@std@@DIV23@@Z
    ?Linear2Loudness@@YANN@Z
    ?LinearEstimate@ResidualEchoEstimator@webrtc@@AAEXABV?$array@M$0EB@@std@@0V?$optional@M@absl@@PAV34@@Z
    ?LoadFrame@MJpegDecoder@libyuv@@QAEHPBEI@Z
    ?Lock@GlobalLockPod@rtc@@QAEXXZ
    ?Log2TodB@webrtc@@YAMM@Z
    ?Log@webrtc_logging_impl@rtc@@YAXPBW4LogArgType@12@ZZ
    ?LogFilterProperties@MatchedFilter@webrtc@@QBEXHII@Z
    ?LogRegionStats@RegionLogger@InterpolatedGainCurve@webrtc@@QBEXABUStats@23@@Z
    ?LogStartTime@LogMessage@rtc@@SA_JXZ
    ?LogThreads@LogMessage@rtc@@SAX_N@Z
    ?LogTimestamps@LogMessage@rtc@@SAX_N@Z
    ?LogToDebug@LogMessage@rtc@@SAXW4LoggingSeverity@2@@Z
    ?LookUpGainToApply@InterpolatedGainCurve@webrtc@@QBEMM@Z
    ?Loudness2Db@@YANN@Z
    ?LowCutFilteringRequired@ApmSubmoduleStates@AudioProcessingImpl@webrtc@@QBE_NXZ
    ?LowerBandGain@SuppressionGain@webrtc@@AAEX_NABVAecState@2@ABV?$array@M$0EB@@std@@222PAV45@@Z
    ?MakeEmptyUpdate@UpdateRect@VideoFrame@webrtc@@QAEXXZ
    ?MaskRegionsAroundNarrowBands@RenderSignalAnalyzer@webrtc@@QBEXPAV?$array@M$0EB@@std@@@Z
    ?MatchedFilterCore@aec3@webrtc@@YAXIMMV?$ArrayView@$$CBM$0?BCGH@@rtc@@0V?$ArrayView@M$0?BCGH@@4@PA_NPAM@Z
    ?MatchedFilterCore_SSE2@aec3@webrtc@@YAXIMMV?$ArrayView@$$CBM$0?BCGH@@rtc@@0V?$ArrayView@M$0?BCGH@@4@PA_NPAM@Z
    ?Max10MsFramesInAPacket@?$AudioEncoderIsacT@UIsacFloat@webrtc@@@webrtc@@UBEIXZ
    ?MaybeInitialize@AudioProcessingImpl@webrtc@@AAEHABVProcessingConfig@2@_N@Z
    ?MaybeInitializeCapture@AudioProcessingImpl@webrtc@@AAEHABVProcessingConfig@2@_N@Z
    ?MaybeInitializeRender@AudioProcessingImpl@webrtc@@AAEHABVProcessingConfig@2@@Z
    ?MaybeUpdateHistograms@AudioProcessingImpl@webrtc@@AAEXXZ
    ?MbDenoise@DenoiserFilterC@webrtc@@UAE?AW4DenoiserDecision@2@PBEHPAEH0HEH@Z
    ?MbDenoise@DenoiserFilterSSE2@webrtc@@UAE?AW4DenoiserDecision@2@PBEHPAEH0HEH@Z
    ?MbHasSkinColor@webrtc@@YA_NPBE00HHHHH@Z
    ?Mean@VadCircularBuffer@webrtc@@QAENXZ
    ?MergeFrequencyBands@AudioBuffer@webrtc@@QAEXXZ
    ?MinSample@metrics@webrtc@@YAHABV?$basic_string@DU?$char_traits@D@std@@V?$allocator@D@2@@std@@@Z
    ?MonoToStereo@AudioFrameOperations@webrtc@@SAHPAVAudioFrame@2@@Z
    ?MutableDataU@I420Buffer@webrtc@@QAEPAEXZ
    ?MutableDataV@I420Buffer@webrtc@@QAEPAEXZ
    ?MutableDataY@I420Buffer@webrtc@@QAEPAEXZ
    ?MutateConfig@AudioProcessingImpl@webrtc@@QAEXV?$FunctionView@$$A6AXPAUConfig@AudioProcessing@webrtc@@@Z@rtc@@@Z
    ?Mute@AudioFrame@webrtc@@QAEXXZ
    ?Mute@AudioFrameOperations@webrtc@@SAXPAVAudioFrame@2@@Z
    ?Mute@AudioFrameOperations@webrtc@@SAXPAVAudioFrame@2@_N1@Z
    ?NodeAt@WPDTree@webrtc@@QAEPAVWPDNode@2@HH@Z
    ?NoiseEstimate@NoiseSuppressionImpl@webrtc@@UAE?AV?$vector@MV?$allocator@M@std@@@std@@XZ
    ?NoiseEstimate@NoiseSuppressionProxy@webrtc@@UAE?AV?$vector@MV?$allocator@M@std@@@std@@XZ
    ?NonLinearEstimate@ResidualEchoEstimator@webrtc@@AAEXMABV?$array@M$0EB@@std@@0PAV34@@Z
    ?NotifyAnalogLevel@GainController2@webrtc@@QAEXH@Z
    ?Num10MsFramesInNextPacket@?$AudioEncoderIsacT@UIsacFloat@webrtc@@@webrtc@@UBEIXZ
    ?NumCancellersRequired@EchoCancellationImpl@webrtc@@SAIII@Z
    ?NumCancellersRequired@EchoControlMobileImpl@webrtc@@SAIII@Z
    ?NumChannels@?$AudioEncoderIsacT@UIsacFloat@webrtc@@@webrtc@@UBEIXZ
    ?NumEvents@metrics@webrtc@@YAHABV?$basic_string@DU?$char_traits@D@std@@V?$allocator@D@2@@std@@H@Z
    ?NumSamples@metrics@webrtc@@YAHABV?$basic_string@DU?$char_traits@D@std@@V?$allocator@D@2@@std@@@Z
    ?Oldest@VadCircularBuffer@webrtc@@QBENXZ
    ?OnLogMessage@LogSink@rtc@@UAEXABV?$basic_string@DU?$char_traits@D@std@@V?$allocator@D@2@@std@@W4LoggingSeverity@2@@Z
    ?OnLogMessage@LogSink@rtc@@UAEXABV?$basic_string@DU?$char_traits@D@std@@V?$allocator@D@2@@std@@W4LoggingSeverity@2@PBD@Z
    ?OutputHandler@libyuv@@YAXPAUjpeg_common_struct@@@Z
    ?OutputToDebug@LogMessage@rtc@@CAXABV?$basic_string@DU?$char_traits@D@std@@V?$allocator@D@2@@std@@W4LoggingSeverity@2@@Z
    ?PackRenderAudioBuffer@EchoCancellationImpl@webrtc@@SAXPBVAudioBuffer@2@IIPAV?$vector@MV?$allocator@M@std@@@std@@@Z
    ?PackRenderAudioBuffer@EchoControlMobileImpl@webrtc@@SAXPBVAudioBuffer@2@IIPAV?$vector@FV?$allocator@F@std@@@std@@@Z
    ?PackRenderAudioBuffer@EchoDetector@webrtc@@SAXPAVAudioBuffer@2@PAV?$vector@MV?$allocator@M@std@@@std@@@Z
    ?PackRenderAudioBuffer@GainControlImpl@webrtc@@SAXPAVAudioBuffer@2@PAV?$vector@FV?$allocator@F@std@@@std@@@Z
    ?PaddedFft@Aec3Fft@webrtc@@QBEXV?$ArrayView@$$CBM$0?BCGH@@rtc@@0W4Window@12@PAUFftData@2@@Z
    ?ParseArg@webrtc_checks_impl@rtc@@YA_NPAPADPAPBW4CheckArgType@12@PAV?$basic_string@DU?$char_traits@D@std@@V?$allocator@D@2@@std@@@Z
    ?ParseSigned@string_to_number_internal@rtc@@YA?AV?$optional@_J@absl@@PBDH@Z
    ?ParseUnsigned@string_to_number_internal@rtc@@YA?AV?$optional@_K@absl@@PBDH@Z
    ?PasteFrom@I420Buffer@webrtc@@QAEXABVI420BufferInterface@2@HH@Z
    ?PitchAnalysis@VadAudioProc@webrtc@@AAEXPAN0I@Z
    ?Pop@CircularBuffer@webrtc@@QAE?AV?$optional@M@absl@@XZ
    ?PositionCheck@VideoDenoiser@webrtc@@AAEHHHH@Z
    ?PreProcessFilter@FilterAnalyzer@webrtc@@AAEXV?$ArrayView@$$CBM$0?BCGH@@rtc@@@Z
    ?Process@AdaptiveAgc@webrtc@@QAEXV?$AudioFrameView@M@2@M@Z
    ?Process@AdaptiveDigitalGainApplier@webrtc@@QAEXUSignalWithLevels@2@@Z
    ?Process@AdaptiveModeLevelEstimatorAgc@webrtc@@UAEXPBFIH@Z
    ?Process@Agc@webrtc@@UAEXPBFIH@Z
    ?Process@AgcManagerDirect@webrtc@@QAEXPBFIH@Z
    ?Process@BiQuadFilter@webrtc@@QAEXV?$ArrayView@$$CBM$0?BCGH@@rtc@@V?$ArrayView@M$0?BCGH@@4@@Z
    ?Process@BiquadFilter@LowCutFilter@webrtc@@QAEXPAFI@Z
    ?Process@CascadedBiQuadFilter@webrtc@@QAEXV?$ArrayView@$$CBM$0?BCGH@@rtc@@V?$ArrayView@M$0?BCGH@@4@@Z
    ?Process@CascadedBiQuadFilter@webrtc@@QAEXV?$ArrayView@M$0?BCGH@@rtc@@@Z
    ?Process@GainController2@webrtc@@QAEXPAVAudioBuffer@2@@Z
    ?Process@Limiter@webrtc@@QAEXV?$AudioFrameView@M@2@@Z
    ?Process@LowCutFilter@webrtc@@QAEXPAVAudioBuffer@2@@Z
    ?Process@PeakEnveloper@SaturationProtector@webrtc@@QAEXM@Z
    ?Process@Subtractor@webrtc@@QAEXABVRenderBuffer@2@V?$ArrayView@$$CBM$0?BCGH@@rtc@@ABVRenderSignalAnalyzer@2@ABVAecState@2@PAUSubtractorOutput@2@@Z
    ?Process@TypingDetection@webrtc@@QAE_N_N0@Z
    ?ProcessCapture@EchoCanceller3@webrtc@@UAEXPAVAudioBuffer@2@_N@Z
    ?ProcessCaptureAudio@EchoCancellationImpl@webrtc@@QAEHPAVAudioBuffer@2@H@Z
    ?ProcessCaptureAudio@EchoControlMobileImpl@webrtc@@QAEHPAVAudioBuffer@2@H@Z
    ?ProcessCaptureAudio@GainControlImpl@webrtc@@QAEHPAVAudioBuffer@2@_N@Z
    ?ProcessCaptureAudio@NoiseSuppressionImpl@webrtc@@QAEXPAVAudioBuffer@2@@Z
    ?ProcessCaptureAudio@VoiceDetectionImpl@webrtc@@QAEXPAVAudioBuffer@2@@Z
    ?ProcessCaptureStreamLocked@AudioProcessingImpl@webrtc@@AAEHXZ
    ?ProcessChunk@VoiceActivityDetector@webrtc@@QAEXPBFIH@Z
    ?ProcessRenderAudio@EchoCancellationImpl@webrtc@@QAEXV?$ArrayView@$$CBM$0?BCGH@@rtc@@@Z
    ?ProcessRenderAudio@EchoControlMobileImpl@webrtc@@QAEXV?$ArrayView@$$CBF$0?BCGH@@rtc@@@Z
    ?ProcessRenderAudio@GainControlImpl@webrtc@@QAEXV?$ArrayView@$$CBF$0?BCGH@@rtc@@@Z
    ?ProcessRenderStreamLocked@AudioProcessingImpl@webrtc@@AAEHXZ
    ?ProcessReverseStream@AudioProcessingImpl@webrtc@@UAEHPAVAudioFrame@2@@Z
    ?ProcessReverseStream@AudioProcessingImpl@webrtc@@UAEHPBQBMABVStreamConfig@2@1PBQAM@Z
    ?ProcessStream@AudioProcessingImpl@webrtc@@UAEHPAVAudioFrame@2@@Z
    ?ProcessStream@AudioProcessingImpl@webrtc@@UAEHPBQBMABVStreamConfig@2@1PBQAM@Z
    ?ProcessStream@AudioProcessingImpl@webrtc@@UAEHPBQBMIHW4ChannelLayout@AudioProcessing@2@H1PBQAM@Z
    ?ProcessStream@LevelEstimatorImpl@webrtc@@QAEXPAVAudioBuffer@2@@Z
    ?Push@CircularBuffer@webrtc@@QAEXM@Z
    ?Push@Resampler@webrtc@@QAEHPBFIPAFIAAI@Z
    ?QuadToStereo@AudioFrameOperations@webrtc@@SAHPAVAudioFrame@2@@Z
    ?QuadToStereo@AudioFrameOperations@webrtc@@SAXPBFIPAF@Z
    ?Query@PeakEnveloper@SaturationProtector@webrtc@@QBEMXZ
    ?QueueAPC@PlatformThread@rtc@@IAE_NP6GXK@ZK@Z
    ?QueueBandedRenderAudio@AudioProcessingImpl@webrtc@@AAEXPAVAudioBuffer@2@@Z
    ?QueueNonbandedRenderAudio@AudioProcessingImpl@webrtc@@AAEXPAVAudioBuffer@2@@Z
    ?RMS@LevelEstimatorImpl@webrtc@@UAEHXZ
    ?RaceDetected@RaceCheckerScope@internal@rtc@@QBE_NXZ
    ?RawLog@raw_logging_internal@absl@@YAXW4LogSeverity@2@PBDH1ZZ
    ?RawLoggingFullySupported@raw_logging_internal@absl@@YA_NXZ
    ?ReInit@BlockBuffer@webrtc@@QAEXXZ
    ?ReadSamples@WavReader@webrtc@@QAEIIPAF@Z
    ?ReadSamples@WavReader@webrtc@@QAEIIPAM@Z
    ?ReadWavHeader@webrtc@@YA_NPAVReadableWav@1@PAIPAHPAW4WavFormat@1@11@Z
    ?RecordAudioProcessingState@AudioProcessingImpl@webrtc@@AAEXXZ
    ?RecordProcessedCaptureStream@AudioProcessingImpl@webrtc@@AAEXABVAudioFrame@2@@Z
    ?RecordProcessedCaptureStream@AudioProcessingImpl@webrtc@@AAEXPBQBM@Z
    ?RecordUnprocessedCaptureStream@AudioProcessingImpl@webrtc@@AAEXABVAudioFrame@2@@Z
    ?RecordUnprocessedCaptureStream@AudioProcessingImpl@webrtc@@AAEXPBQBM@Z
    ?RecreateEncoderInstance@?$AudioEncoderIsacT@UIsacFloat@webrtc@@@webrtc@@AAEXABUConfig@12@@Z
    ?RectifiedLinearUnit@rnnoise@@YAMM@Z
    ?ReduceFalseDetection@VideoDenoiser@webrtc@@AAEXABV?$unique_ptr@$$BY0A@EU?$default_delete@$$BY0A@E@std@@@std@@PAV34@H@Z
    ?ReferenceDetectionValue@TransientDetector@webrtc@@AAEMPBMI@Z
    ?RefinePitchPeriod48kHz@rnn_vad@webrtc@@YAIV?$ArrayView@$$CBM$0DGA@@rtc@@V?$ArrayView@$$CBI$01@4@@Z
    ?RefreshF@IFChannelBuffer@webrtc@@ABEXXZ
    ?RefreshI@IFChannelBuffer@webrtc@@ABEXXZ
    ?RegisterInternalLogFunction@raw_logging_internal@absl@@YAXP6AXW4LogSeverity@2@PBDHABV?$basic_string@DU?$char_traits@D@std@@V?$allocator@D@2@@std@@@Z@Z
    ?Release@?$RefCountedObject@VAudioProcessingImpl@webrtc@@@rtc@@UBE?AW4RefCountReleaseStatus@2@XZ
    ?Release@?$RefCountedObject@VI420Buffer@webrtc@@@rtc@@UBE?AW4RefCountReleaseStatus@2@XZ
    ?Release@?$RefCountedObject@VResidualEchoDetector@webrtc@@@rtc@@UBE?AW4RefCountReleaseStatus@2@XZ
    ?Release@I420BufferPool@webrtc@@QAEXXZ
    ?Release@LockedIsacBandwidthInfo@webrtc@@QBEHXZ
    ?Release@RaceChecker@rtc@@ABEXXZ
    ?Remove@?$SwapQueue@V?$vector@FV?$allocator@F@std@@@std@@V?$RenderQueueItemVerifier@F@webrtc@@@webrtc@@QAE_NPAV?$vector@FV?$allocator@F@std@@@std@@@Z
    ?Remove@?$SwapQueue@V?$vector@MV?$allocator@M@std@@@std@@V?$RenderQueueItemVerifier@M@webrtc@@@webrtc@@QAE_NPAV?$vector@MV?$allocator@M@std@@@std@@@Z
    ?Remove@?$SwapQueue@V?$vector@V?$vector@MV?$allocator@M@std@@@std@@V?$allocator@V?$vector@MV?$allocator@M@std@@@std@@@2@@std@@VAec3RenderQueueItemVerifier@webrtc@@@webrtc@@QAE_NPAV?$vector@V?$vector@MV?$allocator@M@std@@@std@@V?$allocator@V?$vector@MV?$allocator@M@std@@@std@@@2@@std@@@Z
    ?Remove@?$SwapQueue@VRuntimeSetting@AudioProcessing@webrtc@@V?$SwapQueueItemVerifier@VRuntimeSetting@AudioProcessing@webrtc@@$1??$NoopSwapQueueItemVerifierFunction@VRuntimeSetting@AudioProcessing@webrtc@@@internal@3@YA_NABV123@@Z@3@@webrtc@@QAE_NPAVRuntimeSetting@AudioProcessing@2@@Z
    ?RemoveLogToStream@LogMessage@rtc@@SAXPAVLogSink@2@@Z
    ?RemoveOldestEntryAndUpdate@LoudnessHistogram@webrtc@@AAEXXZ
    ?RemoveTransient@LoudnessHistogram@webrtc@@AAEXXZ
    ?RemoveTransient@VadCircularBuffer@webrtc@@QAEHHN@Z
    ?RenderFullBandProcessingActive@ApmSubmoduleStates@AudioProcessingImpl@webrtc@@QBE_NXZ
    ?RenderMultiBandProcessingActive@ApmSubmoduleStates@AudioProcessingImpl@webrtc@@QBE_NXZ
    ?RenderMultiBandSubModulesActive@ApmSubmoduleStates@AudioProcessingImpl@webrtc@@QBE_NXZ
    ?RenderNoisePower@ResidualEchoEstimator@webrtc@@ABEXABVRenderBuffer@2@PAV?$array@M$0EB@@std@@PAV?$array@H$0EB@@5@@Z
    ?ReportCaptureCall@ApiCallJitterMetrics@webrtc@@QAEXXZ
    ?ReportRenderCall@ApiCallJitterMetrics@webrtc@@QAEXXZ
    ?Resample@?$PushResampler@F@webrtc@@QAEHPBFIPAFI@Z
    ?Resample@?$PushResampler@M@webrtc@@QAEHPBMIPAMI@Z
    ?Resample@PushSincResampler@webrtc@@QAEIPBFIPAFI@Z
    ?Resample@PushSincResampler@webrtc@@QAEIPBMIPAMI@Z
    ?Resample@SincResampler@webrtc@@QAEXIPAM@Z
    ?Reset@?$AudioDecoderIsacT@UIsacFloat@webrtc@@@webrtc@@UAEXXZ
    ?Reset@?$AudioEncoderIsacT@UIsacFloat@webrtc@@@webrtc@@UAEXXZ
    ?Reset@AdaptiveAgc@webrtc@@QAEXXZ
    ?Reset@AdaptiveModeLevelEstimator@webrtc@@QAEXXZ
    ?Reset@AdaptiveModeLevelEstimatorAgc@webrtc@@UAEXXZ
    ?Reset@Agc@webrtc@@UAEXXZ
    ?Reset@ApiCallJitterMetrics@webrtc@@AAEXXZ
    ?Reset@AudioFrame@webrtc@@QAEXXZ
    ?Reset@BlockMeanCalculator@webrtc@@QAEXXZ
    ?Reset@ConsistentFilterDetector@FilterAnalyzer@webrtc@@QAEXXZ
    ?Reset@DivergentFilterFraction@webrtc@@QAEXXZ
    ?Reset@EarlyReverbLengthEstimator@ReverbDecayEstimator@webrtc@@QAEXXZ
    ?Reset@EchoAudibility@webrtc@@AAEXXZ
    ?Reset@EchoPathDelayEstimator@webrtc@@AAEX_N0@Z
    ?Reset@EchoPathDelayEstimator@webrtc@@QAEX_N@Z
    ?Reset@ErlEstimator@webrtc@@QAEXXZ
    ?Reset@ErleEstimator@webrtc@@QAEX_N@Z
    ?Reset@ErleInstantaneous@FullBandErleEstimator@webrtc@@QAEXXZ
    ?Reset@Event@rtc@@QAEXXZ
    ?Reset@FeaturesExtractor@rnn_vad@webrtc@@QAEXXZ
    ?Reset@FilterAnalyzer@webrtc@@QAEXXZ
    ?Reset@FilterMisadjustmentEstimator@Subtractor@webrtc@@QAEXXZ
    ?Reset@FilteringQualityAnalyzer@AecState@webrtc@@QAEXXZ
    ?Reset@FixedDigitalLevelEstimator@webrtc@@QAEXXZ
    ?Reset@FullBandErleEstimator@webrtc@@QAEXXZ
    ?Reset@GatedRecurrentLayer@rnn_vad@webrtc@@QAEXXZ
    ?Reset@InitialState@AecState@webrtc@@QAEXXZ
    ?Reset@Jitter@ApiCallJitterMetrics@webrtc@@QAEXXZ
    ?Reset@LateReverbLinearRegressor@ReverbDecayEstimator@webrtc@@QAEXH@Z
    ?Reset@LegacyFilteringQualityAnalyzer@AecState@webrtc@@QAEXXZ
    ?Reset@LegacySaturationDetector@AecState@webrtc@@QAEXXZ
    ?Reset@Limiter@webrtc@@QAEXXZ
    ?Reset@LoudnessHistogram@webrtc@@QAEXXZ
    ?Reset@MatchedFilter@webrtc@@QAEXXZ
    ?Reset@MatchedFilterLagAggregator@webrtc@@QAEX_N@Z
    ?Reset@NoiseSpectrum@StationarityEstimator@webrtc@@QAEXXZ
    ?Reset@RenderReverbModel@webrtc@@QAEXXZ
    ?Reset@Resampler@webrtc@@QAEHHHI@Z
    ?Reset@ResidualEchoEstimator@webrtc@@AAEXXZ
    ?Reset@ReverbModel@webrtc@@QAEXXZ
    ?Reset@ReverbModelFallback@webrtc@@QAEXXZ
    ?Reset@RmsLevel@webrtc@@QAEXXZ
    ?Reset@RnnBasedVad@rnn_vad@webrtc@@QAEXXZ
    ?Reset@SaturationProtector@webrtc@@QAEXXZ
    ?Reset@SignalDependentErleEstimator@webrtc@@QAEXXZ
    ?Reset@SkewEstimator@webrtc@@QAEXXZ
    ?Reset@SpectralFeaturesExtractor@rnn_vad@webrtc@@QAEXXZ
    ?Reset@StationarityEstimator@webrtc@@QAEXXZ
    ?Reset@SubbandErleEstimator@webrtc@@QAEXXZ
    ?Reset@SubtractorOutput@webrtc@@QAEXXZ
    ?Reset@TransparentMode@AecState@webrtc@@QAEXXZ
    ?Reset@VadCircularBuffer@webrtc@@QAEXXZ
    ?Reset@metrics@webrtc@@YAXXZ
    ?ResetAccumulatedSpectra@SubbandErleEstimator@webrtc@@AAEXXZ
    ?ResetAccumulators@ErleInstantaneous@FullBandErleEstimator@webrtc@@QAEXXZ
    ?ResetAllocation@?$InlinedVector@PAF$07V?$allocator@PAF@std@@@absl@@AAEXVAllocation@12@I@Z
    ?ResetAllocation@?$InlinedVector@PAM$07V?$allocator@PAM@std@@@absl@@AAEXVAllocation@12@I@Z
    ?ResetBuffer@VadAudioProc@webrtc@@AAEXXZ
    ?ResetConsecLowVar@NoiseEstimation@webrtc@@QAEXH@Z
    ?ResetDecayEstimation@ReverbDecayEstimator@webrtc@@AAEXXZ
    ?ResetFilterBuffersToCurrentSize@AdaptiveFirFilter@webrtc@@AAEXXZ
    ?ResetIfNeeded@Resampler@webrtc@@QAEHHHI@Z
    ?ResetMetrics@BlockProcessorMetrics@webrtc@@AAEXXZ
    ?ResetMetrics@EchoRemoverMetrics@webrtc@@AAEXXZ
    ?ResetMetrics@RenderDelayControllerMetrics@webrtc@@AAEXXZ
    ?ResetRegion@FilterAnalyzer@webrtc@@AAEXXZ
    ?ResetWithoutMuting@AudioFrame@webrtc@@QAEXXZ
    ?ReverseFft@KissFft@rnnoise@@QAEXIPBV?$complex@M@std@@IPAV34@@Z
    ?Rms@VadAudioProc@webrtc@@AAEXPANI@Z
    ?Rotate@I420Buffer@webrtc@@SA?AV?$scoped_refptr@VI420Buffer@webrtc@@@rtc@@ABVI420BufferInterface@2@W4VideoRotation@2@@Z
    ?Run@PlatformThread@rtc@@AAEXXZ
    ?Run@PushSincResampler@webrtc@@MAEXIPAM@Z
    ?S16ToFloat@webrtc@@YAXPBFIPAM@Z
    ?SafeWriteToStderr@raw_logging_internal@absl@@YAXPBDI@Z
    ?SampleRateHz@?$AudioDecoderIsacT@UIsacFloat@webrtc@@@webrtc@@UBEHXZ
    ?SampleRateHz@?$AudioEncoderIsacT@UIsacFloat@webrtc@@@webrtc@@UBEHXZ
    ?Samples@metrics@webrtc@@YA?AV?$map@HHU?$less@H@std@@V?$allocator@U?$pair@$$CBHH@std@@@2@@std@@ABV?$basic_string@DU?$char_traits@D@std@@V?$allocator@D@2@@4@@Z
    ?Scale@AudioFrameOperations@webrtc@@SAHMMPAVAudioFrame@2@@Z
    ?ScaleFilter@AdaptiveFirFilter@webrtc@@QAEXM@Z
    ?ScaleFrom@I420Buffer@webrtc@@QAEXABVI420BufferInterface@2@@Z
    ?ScaleWithSat@AudioFrameOperations@webrtc@@SAHMPAVAudioFrame@2@@Z
    ?Set@Event@rtc@@QAEXXZ
    ?Set@VadCircularBuffer@webrtc@@AAEHHN@Z
    ?SetAudioBufferDelay@EchoCanceller3@webrtc@@UAEXI@Z
    ?SetBlack@I420Buffer@webrtc@@SAXPAV12@@Z
    ?SetCaptureAnalyzer@AudioProcessingBuilder@webrtc@@QAEAAV12@V?$unique_ptr@VCustomAudioAnalyzer@webrtc@@U?$default_delete@VCustomAudioAnalyzer@webrtc@@@std@@@std@@@Z
    ?SetCaptureMuted@AgcManagerDirect@webrtc@@QAEX_N@Z
    ?SetCapturePostProcessing@AudioProcessingBuilder@webrtc@@QAEAAV12@V?$unique_ptr@VCustomProcessing@webrtc@@U?$default_delete@VCustomProcessing@webrtc@@@std@@@std@@@Z
    ?SetClockForTesting@rtc@@YAPAVClockInterface@1@PAV21@@Z
    ?SetCurrentThreadName@rtc@@YAXPBD@Z
    ?SetDecSampRate@IsacFloat@webrtc@@SAFPAUWebRtcISACStruct@@G@Z
    ?SetEchoControlFactory@AudioProcessingBuilder@webrtc@@QAEAAV12@V?$unique_ptr@VEchoControlFactory@webrtc@@U?$default_delete@VEchoControlFactory@webrtc@@@std@@@std@@@Z
    ?SetEchoDetector@AudioProcessingBuilder@webrtc@@QAEAAV12@V?$scoped_refptr@VEchoDetector@webrtc@@@rtc@@@Z
    ?SetEncSampRate@IsacFloat@webrtc@@SAFPAUWebRtcISACStruct@@G@Z
    ?SetExperimentId@videocontenttypehelpers@webrtc@@YA_NPAW4VideoContentType@2@E@Z
    ?SetExtraOptions@AudioProcessingImpl@webrtc@@UAEXABVConfig@2@@Z
    ?SetExtraOptions@EchoCancellationImpl@webrtc@@QAEXABVConfig@2@@Z
    ?SetFilter@AdaptiveFirFilter@webrtc@@QAEXABV?$vector@UFftData@webrtc@@V?$allocator@UFftData@webrtc@@@std@@@std@@@Z
    ?SetGainFactor@GainApplier@webrtc@@QAEXM@Z
    ?SetInitialState@SuppressionGain@webrtc@@QAEX_N@Z
    ?SetLevel@AgcManagerDirect@webrtc@@AAEXH@Z
    ?SetLogToStderr@LogMessage@rtc@@SAX_N@Z
    ?SetMaxLevel@AgcManagerDirect@webrtc@@AAEXH@Z
    ?SetMaxPayloadSize@IsacFloat@webrtc@@SAFPAUWebRtcISACStruct@@F@Z
    ?SetMaxRate@IsacFloat@webrtc@@SAFPAUWebRtcISACStruct@@H@Z
    ?SetMicVolume@GainControlForExperimentalAgc@webrtc@@UAEXH@Z
    ?SetParameters@TypingDetection@webrtc@@QAEXHHHHHH@Z
    ?SetPriority@PlatformThread@rtc@@QAE_NW4ThreadPriority@2@@Z
    ?SetRatio@SincResampler@webrtc@@QAEXN@Z
    ?SetRegionToAnalyze@FilterAnalyzer@webrtc@@QAEXV?$ArrayView@$$CBM$0?BCGH@@rtc@@@Z
    ?SetRenderPreProcessing@AudioProcessingBuilder@webrtc@@QAEAAV12@V?$unique_ptr@VCustomProcessing@webrtc@@U?$default_delete@VCustomProcessing@webrtc@@@std@@@std@@@Z
    ?SetRuntimeSetting@AudioProcessingImpl@webrtc@@UAEXVRuntimeSetting@AudioProcessing@2@@Z
    ?SetRuntimeSetting@CustomProcessing@webrtc@@UAEXVRuntimeSetting@AudioProcessing@2@@Z
    ?SetSampleRate@FixedDigitalLevelEstimator@webrtc@@QAEXI@Z
    ?SetSampleRate@Limiter@webrtc@@QAEXI@Z
    ?SetSampleRate@VadWithLevel@webrtc@@AAEXH@Z
    ?SetScanlinePointers@MJpegDecoder@libyuv@@AAEXPAPAE@Z
    ?SetSimulcastId@videocontenttypehelpers@webrtc@@YA_NPAW4VideoContentType@2@E@Z
    ?SetSizePartitions@AdaptiveFirFilter@webrtc@@QAEXI_N@Z
    ?SetTimeConstantMs@SmoothingFilterImpl@webrtc@@UAE_NH@Z
    ?SetupEventTracer@webrtc@@YAXP6APBEPBD@ZP6AXDPBE0_KHPAPBD2PB_KE@Z@Z
    ?SetupInternalTracer@tracing@rtc@@YAXXZ
    ?ShutdownInternalTracer@tracing@rtc@@YAXXZ
    ?SigmoidApproximated@rnnoise@@YAMM@Z
    ?Size@BlockBuffer@webrtc@@QAEIXZ
    ?SmoothStationaryPerFreq@StationarityEstimator@webrtc@@AAEXXZ
    ?SoftRestoration@TransientSuppressor@webrtc@@AAEXPAM@Z
    ?SparseHistogramFactoryGetEnumeration@metrics@webrtc@@YAPAVHistogram@12@ABV?$basic_string@DU?$char_traits@D@std@@V?$allocator@D@2@@std@@H@Z
    ?SpectralSum@RenderBuffer@webrtc@@QBEXIPAV?$array@M$0EB@@std@@@Z
    ?SpectralSums@RenderBuffer@webrtc@@QBEXIIPAV?$array@M$0EB@@std@@0@Z
    ?SplitIntoFrequencyBands@AudioBuffer@webrtc@@QAEXXZ
    ?Sqrt@VectorMath@aec3@webrtc@@QAEXV?$ArrayView@M$0?BCGH@@rtc@@@Z
    ?Start@PlatformThread@rtc@@QAEXXZ
    ?StartDecode@MJpegDecoder@libyuv@@AAEHXZ
    ?StartInternalCapture@tracing@rtc@@YA_NPBD@Z
    ?StartInternalCaptureToFile@tracing@rtc@@YAXPAU_iobuf@@@Z
    ?StartThread@PlatformThread@rtc@@CGKPAX@Z
    ?StereoToMono@AudioFrameOperations@webrtc@@SAHPAVAudioFrame@2@@Z
    ?Stop@PlatformThread@rtc@@QAEXXZ
    ?StopInternalCapture@tracing@rtc@@YAXXZ
    ?StrideU@I420Buffer@webrtc@@UBEHXZ
    ?StrideV@I420Buffer@webrtc@@UBEHXZ
    ?StrideY@I420Buffer@webrtc@@UBEHXZ
    ?SubframeCorrelation@VadAudioProc@webrtc@@AAEXPANII@Z
    ?Suppress@TransientSuppressor@webrtc@@AAEXPAM00@Z
    ?Suppress@TransientSuppressor@webrtc@@QAEHPAMIHPBMI1IM_N@Z
    ?SwapStereoChannels@AudioFrameOperations@webrtc@@SAXPAVAudioFrame@2@@Z
    ?Synthesis@ThreeBandFilterBank@webrtc@@QAEXPBQBMIPAM@Z
    ?SystemTimeMillis@rtc@@YA_JXZ
    ?SystemTimeNanos@rtc@@YA_JXZ
    ?TansigApproximated@rnnoise@@YAMM@Z
    ?Time32@rtc@@YAIXZ
    ?TimeAfter@rtc@@YA_J_J@Z
    ?TimeDiff32@rtc@@YAHII@Z
    ?TimeDiff@rtc@@YA_J_J0@Z
    ?TimeMicros@rtc@@YA_JXZ
    ?TimeMillis@rtc@@YA_JXZ
    ?TimeNanos@rtc@@YA_JXZ
    ?TimeSinceLastDetectionInSeconds@TypingDetection@webrtc@@QAEHXZ
    ?TimeUTCMicros@rtc@@YA_JXZ
    ?TimeUTCMillis@rtc@@YA_JXZ
    ?TmToSeconds@rtc@@YA_JABUtm@@@Z
    ?ToHex@rtc@@YA?AV?$basic_string@DU?$char_traits@D@std@@V?$allocator@D@2@@std@@H@Z
    ?ToI420@I420BufferInterface@webrtc@@UAE?AV?$scoped_refptr@VI420BufferInterface@webrtc@@@rtc@@XZ
    ?ToString@GainController2@webrtc@@SA?AV?$basic_string@DU?$char_traits@D@std@@V?$allocator@D@2@@std@@ABU1Config@AudioProcessing@2@@Z
    ?ToString@TimingFrameInfo@webrtc@@QBE?AV?$basic_string@DU?$char_traits@D@std@@V?$allocator@D@2@@std@@XZ
    ?ToString@rtc@@YA?AV?$basic_string@DU?$char_traits@D@std@@V?$allocator@D@2@@std@@F@Z
    ?ToString@rtc@@YA?AV?$basic_string@DU?$char_traits@D@std@@V?$allocator@D@2@@std@@G@Z
    ?ToString@rtc@@YA?AV?$basic_string@DU?$char_traits@D@std@@V?$allocator@D@2@@std@@H@Z
    ?ToString@rtc@@YA?AV?$basic_string@DU?$char_traits@D@std@@V?$allocator@D@2@@std@@I@Z
    ?ToString@rtc@@YA?AV?$basic_string@DU?$char_traits@D@std@@V?$allocator@D@2@@std@@J@Z
    ?ToString@rtc@@YA?AV?$basic_string@DU?$char_traits@D@std@@V?$allocator@D@2@@std@@K@Z
    ?ToString@rtc@@YA?AV?$basic_string@DU?$char_traits@D@std@@V?$allocator@D@2@@std@@N@Z
    ?ToString@rtc@@YA?AV?$basic_string@DU?$char_traits@D@std@@V?$allocator@D@2@@std@@O@Z
    ?ToString@rtc@@YA?AV?$basic_string@DU?$char_traits@D@std@@V?$allocator@D@2@@std@@PBD@Z
    ?ToString@rtc@@YA?AV?$basic_string@DU?$char_traits@D@std@@V?$allocator@D@2@@std@@PBX@Z
    ?ToString@rtc@@YA?AV?$basic_string@DU?$char_traits@D@std@@V?$allocator@D@2@@std@@V23@@Z
    ?ToString@rtc@@YA?AV?$basic_string@DU?$char_traits@D@std@@V?$allocator@D@2@@std@@_J@Z
    ?ToString@rtc@@YA?AV?$basic_string@DU?$char_traits@D@std@@V?$allocator@D@2@@std@@_K@Z
    ?ToString@rtc@@YA?AV?$basic_string@DU?$char_traits@D@std@@V?$allocator@D@2@@std@@_N@Z
    ?ToString@videocontenttypehelpers@webrtc@@YAPBDABW4VideoContentType@2@@Z
    ?TransformDbMetricForReporting@aec3@webrtc@@YAH_NMMMMM@Z
    ?TryEnter@CriticalSection@rtc@@QBE_NXZ
    ?Union@UpdateRect@VideoFrame@webrtc@@QAEXABU123@@Z
    ?UnloadFrame@MJpegDecoder@libyuv@@QAEHXZ
    ?Unlock@GlobalLockPod@rtc@@QAEXXZ
    ?Unwrap@TimestampWrapAroundHandler@rtc@@QAE_JI@Z
    ?UpModulate@ThreeBandFilterBank@webrtc@@AAEXPBQBMIIPAM@Z
    ?Update@AecState@webrtc@@QAEXABV?$optional@UDelayEstimate@webrtc@@@absl@@ABV?$vector@V?$array@M$0EB@@std@@V?$allocator@V?$array@M$0EB@@std@@@2@@std@@ABV?$vector@MV?$allocator@M@std@@@6@ABVRenderBuffer@2@ABV?$array@M$0EB@@6@4ABUSubtractorOutput@2@V?$ArrayView@$$CBM$0?BCGH@@rtc@@@Z
    ?Update@ApmSubmoduleStates@AudioProcessingImpl@webrtc@@QAE_N_N000000000000@Z
    ?Update@ClockdriftDetector@webrtc@@QAEXH@Z
    ?Update@DbMetric@EchoRemoverMetrics@webrtc@@QAEXM@Z
    ?Update@DominantNearendDetector@SuppressionGain@webrtc@@QAEXV?$ArrayView@$$CBM$0?BCGH@@rtc@@00_N@Z
    ?Update@EchoAudibility@webrtc@@QAEXABVRenderBuffer@2@V?$ArrayView@$$CBM$0?BCGH@@rtc@@H_N@Z
    ?Update@EchoRemoverMetrics@webrtc@@QAEXABVAecState@2@ABV?$array@M$0EB@@std@@1@Z
    ?Update@ErlEstimator@webrtc@@QAEX_NV?$ArrayView@$$CBM$0?BCGH@@rtc@@1@Z
    ?Update@ErleEstimator@webrtc@@QAEXABVRenderBuffer@2@ABV?$vector@V?$array@M$0EB@@std@@V?$allocator@V?$array@M$0EB@@std@@@2@@std@@V?$ArrayView@$$CBM$0?BCGH@@rtc@@22_N3@Z
    ?Update@ErleInstantaneous@FullBandErleEstimator@webrtc@@QAE_NMM@Z
    ?Update@FilterAnalyzer@webrtc@@QAEXV?$ArrayView@$$CBM$0?BCGH@@rtc@@ABVRenderBuffer@2@@Z
    ?Update@FilterDelay@AecState@webrtc@@QAEXABVFilterAnalyzer@3@ABV?$optional@UDelayEstimate@webrtc@@@absl@@I@Z
    ?Update@FilterMisadjustmentEstimator@Subtractor@webrtc@@QAEXABUSubtractorOutput@3@@Z
    ?Update@FilteringQualityAnalyzer@AecState@webrtc@@QAEX_N000ABV?$optional@UDelayEstimate@webrtc@@@absl@@0@Z
    ?Update@FullBandErleEstimator@webrtc@@QAEXV?$ArrayView@$$CBM$0?BCGH@@rtc@@00_N@Z
    ?Update@InitialState@AecState@webrtc@@QAEX_N0@Z
    ?Update@Jitter@ApiCallJitterMetrics@webrtc@@QAEXH@Z
    ?Update@LegacyFilteringQualityAnalyzer@AecState@webrtc@@QAEX_N000ABV?$optional@UDelayEstimate@webrtc@@@absl@@00@Z
    ?Update@LegacySaturationDetector@AecState@webrtc@@QAEXV?$ArrayView@$$CBM$0?BCGH@@rtc@@_NM@Z
    ?Update@LoudnessHistogram@webrtc@@QAEXNN@Z
    ?Update@MatchedFilter@webrtc@@QAEXABUDownsampledRenderBuffer@2@V?$ArrayView@$$CBM$0?BCGH@@rtc@@@Z
    ?Update@MeanVarianceEstimator@webrtc@@QAEXM@Z
    ?Update@MovingMax@webrtc@@QAEXM@Z
    ?Update@NoiseSpectrum@StationarityEstimator@webrtc@@QAEXV?$ArrayView@$$CBM$0?BCGH@@rtc@@@Z
    ?Update@NoiseSpectrumEstimator@webrtc@@QAEXV?$ArrayView@$$CBM$0?BCGH@@rtc@@_N@Z
    ?Update@NormalizedCovarianceEstimator@webrtc@@QAEXMMMMMM@Z
    ?Update@RenderDelayControllerMetrics@webrtc@@QAEXV?$optional@I@absl@@IV?$optional@H@4@W4Level@ClockdriftDetector@2@@Z
    ?Update@RenderSignalAnalyzer@webrtc@@QAEXABVRenderBuffer@2@ABV?$optional@I@absl@@@Z
    ?Update@ReverbDecayEstimator@webrtc@@QAEXV?$ArrayView@$$CBM$0?BCGH@@rtc@@ABV?$optional@M@absl@@H_N2@Z
    ?Update@ReverbFrequencyResponse@webrtc@@AAEXABV?$vector@V?$array@M$0EB@@std@@V?$allocator@V?$array@M$0EB@@std@@@2@@std@@HM@Z
    ?Update@ReverbFrequencyResponse@webrtc@@QAEXABV?$vector@V?$array@M$0EB@@std@@V?$allocator@V?$array@M$0EB@@std@@@2@@std@@HABV?$optional@M@absl@@_N@Z
    ?Update@ReverbModelEstimator@webrtc@@QAEXV?$ArrayView@$$CBM$0?BCGH@@rtc@@ABV?$vector@V?$array@M$0EB@@std@@V?$allocator@V?$array@M$0EB@@std@@@2@@std@@ABV?$optional@M@absl@@H_N3@Z
    ?Update@SaturationDetector@AecState@webrtc@@QAEXV?$ArrayView@$$CBM$0?BCGH@@rtc@@_N1ABUSubtractorOutput@3@M@Z
    ?Update@SignalDependentErleEstimator@webrtc@@QAEXABVRenderBuffer@2@ABV?$vector@V?$array@M$0EB@@std@@V?$allocator@V?$array@M$0EB@@std@@@2@@std@@V?$ArrayView@$$CBM$0?BCGH@@rtc@@222_N@Z
    ?Update@SubbandErleEstimator@webrtc@@QAEXV?$ArrayView@$$CBM$0?BCGH@@rtc@@00_N1@Z
    ?Update@SubtractorOutputAnalyzer@webrtc@@QAEXABUSubtractorOutput@2@@Z
    ?Update@TransparentMode@AecState@webrtc@@QAEXH_N0000@Z
    ?Update@WPDNode@webrtc@@QAEHPBMI@Z
    ?Update@WPDTree@webrtc@@QAEHPBMI@Z
    ?UpdateAccumulatedSpectra@SubbandErleEstimator@webrtc@@AAEXV?$ArrayView@$$CBM$0?BCGH@@rtc@@00@Z
    ?UpdateActiveSubmoduleStates@AudioProcessingImpl@webrtc@@AAE_NXZ
    ?UpdateAlpha@SmoothingFilterImpl@webrtc@@AAEXH@Z
    ?UpdateBandBySmoothing@NoiseSpectrum@StationarityEstimator@webrtc@@ABEMMMM@Z
    ?UpdateBands@SubbandErleEstimator@webrtc@@AAEX_N@Z
    ?UpdateBuffers@TransientSuppressor@webrtc@@AAEXPAM@Z
    ?UpdateCapture@BlockProcessorMetrics@webrtc@@QAEX_N@Z
    ?UpdateCompressor@AgcManagerDirect@webrtc@@AAEXXZ
    ?UpdateCorrectionFactors@SignalDependentErleEstimator@webrtc@@AAEXV?$ArrayView@$$CBM$0?BCGH@@rtc@@00V?$ArrayView@$$CBI$0?BCGH@@4@@Z
    ?UpdateCurrentConfig@MainFilterUpdateGain@webrtc@@AAEXXZ
    ?UpdateCurrentConfig@ShadowFilterUpdateGain@webrtc@@AAEXXZ
    ?UpdateDbMetric@aec3@webrtc@@YAXABV?$array@M$0EB@@std@@PAV?$array@UDbMetric@EchoRemoverMetrics@webrtc@@$01@4@@Z
    ?UpdateErlEstimator@aec3@webrtc@@YAXABV?$vector@V?$array@M$0EB@@std@@V?$allocator@V?$array@M$0EB@@std@@@2@@std@@PAV?$array@M$0EB@@4@@Z
    ?UpdateErlEstimator_SSE2@aec3@webrtc@@YAXABV?$vector@V?$array@M$0EB@@std@@V?$allocator@V?$array@M$0EB@@std@@@2@@std@@PAV?$array@M$0EB@@4@@Z
    ?UpdateEstimation@AdaptiveModeLevelEstimator@webrtc@@QAEXABULevelAndProbability@VadWithLevel@2@@Z
    ?UpdateFilterGain@FilterAnalyzer@webrtc@@AAEXV?$ArrayView@$$CBM$0?BCGH@@rtc@@I@Z
    ?UpdateFrame@AudioFrame@webrtc@@QAEXIPBFIHW4SpeechType@12@W4VADActivity@12@I@Z
    ?UpdateFrequencyResponse@aec3@webrtc@@YAXV?$ArrayView@$$CBUFftData@webrtc@@$0?BCGH@@rtc@@PAV?$vector@V?$array@M$0EB@@std@@V?$allocator@V?$array@M$0EB@@std@@@2@@std@@@Z
    ?UpdateFrequencyResponse_SSE2@aec3@webrtc@@YAXV?$ArrayView@$$CBUFftData@webrtc@@$0?BCGH@@rtc@@PAV?$vector@V?$array@M$0EB@@std@@V?$allocator@V?$array@M$0EB@@std@@@2@@std@@@Z
    ?UpdateGain@AgcManagerDirect@webrtc@@AAEXXZ
    ?UpdateHangover@StationarityEstimator@webrtc@@AAEXXZ
    ?UpdateHist@LoudnessHistogram@webrtc@@AAEXHH@Z
    ?UpdateHistogramsOnCallEnd@AudioProcessingImpl@webrtc@@UAEXXZ
    ?UpdateInstant@DbMetric@EchoRemoverMetrics@webrtc@@QAEXM@Z
    ?UpdateKeypress@TransientSuppressor@webrtc@@AAEX_N@Z
    ?UpdateMargin@SaturationProtector@webrtc@@QAEXABULevelAndProbability@VadWithLevel@2@M@Z
    ?UpdateMaxMin@ErleInstantaneous@FullBandErleEstimator@webrtc@@AAEXXZ
    ?UpdateMinLogSeverity@LogMessage@rtc@@CAXXZ
    ?UpdateNoiseEstimator@StationarityEstimator@webrtc@@QAEXV?$ArrayView@$$CBM$0?BCGH@@rtc@@@Z
    ?UpdateNoiseLevel@NoiseEstimation@webrtc@@QAEXXZ
    ?UpdatePrior@PitchBasedVad@webrtc@@AAEHN@Z
    ?UpdateProfileTimeStamp@AudioFrame@webrtc@@QAEXXZ
    ?UpdateQualityEstimate@ErleInstantaneous@FullBandErleEstimator@webrtc@@AAEXXZ
    ?UpdateRegions@SincResampler@webrtc@@AAEX_N@Z
    ?UpdateRender@BlockProcessorMetrics@webrtc@@QAEX_N@Z
    ?UpdateRenderNoiseEstimator@EchoAudibility@webrtc@@AAEXABUVectorBuffer@2@ABUMatrixBuffer@2@_N@Z
    ?UpdateRenderStationarityFlags@EchoAudibility@webrtc@@AAEXABVRenderBuffer@2@V?$ArrayView@$$CBM$0?BCGH@@rtc@@H@Z
    ?UpdateRestoration@TransientSuppressor@webrtc@@AAEXM@Z
    ?UpdateReverbContributions@ReverbModel@webrtc@@AAEXAAV?$ArrayView@$$CBM$0?BCGH@@rtc@@0M@Z
    ?UpdateReverbContributionsNoFreqShaping@ReverbModel@webrtc@@QAEXV?$ArrayView@$$CBM$0?BCGH@@rtc@@MM@Z
    ?UpdateSize@AdaptiveFirFilter@webrtc@@AAEXXZ
    ?UpdateStationarityFlags@StationarityEstimator@webrtc@@QAEXABUVectorBuffer@2@V?$ArrayView@$$CBM$0?BCGH@@rtc@@HH@Z
    ?UpdateStats@InterpolatedGainCurve@webrtc@@ABEXM@Z
    ?UpmixChannels@AudioFrameOperations@webrtc@@SAXIPAVAudioFrame@2@@Z
    ?UpperBandsGain@SuppressionGain@webrtc@@ABEMABV?$array@M$0EB@@std@@0ABV?$optional@H@absl@@_NABV?$vector@V?$vector@MV?$allocator@M@std@@@std@@V?$allocator@V?$vector@MV?$allocator@M@std@@@std@@@2@@4@0@Z
    ?ValidAlignment@webrtc@@YA_NI@Z
    ?Validate@EchoCanceller3Config@webrtc@@SA_NPAU12@@Z
    ?Validate@GainController2@webrtc@@SA_NABU1Config@AudioProcessing@2@@Z
    ?Variance16x8@DenoiserFilterC@webrtc@@UAEIPBEH0HPAI@Z
    ?Variance16x8@DenoiserFilterSSE2@webrtc@@UAEIPBEH0HPAI@Z
    ?VoicingProbability@PitchBasedVad@webrtc@@QAEHABUAudioFeatures@@PAN@Z
    ?Wait@Event@rtc@@QAE_NH@Z
    ?WallClockStartTime@LogMessage@rtc@@SAIXZ
    ?WebRtcAec_AdjustFarendBufferSizeAndSystemDelay@webrtc@@YAHPAUAecCore@1@H@Z
    ?WebRtcAec_BufferFarend@webrtc@@YAHPAXPBMI@Z
    ?WebRtcAec_BufferFarendBlock@webrtc@@YAXPAUAecCore@1@PBM@Z
    ?WebRtcAec_ComputeCoherence@webrtc@@3P6AXPBUCoherenceState@1@PAM1@ZA DATA
    ?WebRtcAec_Create@webrtc@@YAPAXXZ
    ?WebRtcAec_CreateAec@webrtc@@YAPAUAecCore@1@H@Z
    ?WebRtcAec_CreateResampler@webrtc@@YAPAXXZ
    ?WebRtcAec_FilterAdaptation@webrtc@@3P6AXABVOouraFft@1@HHQAY0ICA@MQAY0EB@M1@ZA DATA
    ?WebRtcAec_FilterFar@webrtc@@3P6AXHHQAY0ICA@M0QAY0EB@M@ZA DATA
    ?WebRtcAec_Free@webrtc@@YAXPAX@Z
    ?WebRtcAec_FreeAec@webrtc@@YAXPAUAecCore@1@@Z
    ?WebRtcAec_FreeResampler@webrtc@@YAXPAX@Z
    ?WebRtcAec_GetBufferFarendError@webrtc@@YAHPAXPBMI@Z
    ?WebRtcAec_GetDelayMetrics@webrtc@@YAHPAXPAH1PAM@Z
    ?WebRtcAec_GetDelayMetricsCore@webrtc@@YAHPAUAecCore@1@PAH1PAM@Z
    ?WebRtcAec_GetEchoStats@webrtc@@YAXPAUAecCore@1@PAUStats@1@11PAM@Z
    ?WebRtcAec_GetMetrics@webrtc@@YAHPAXPAUAecMetrics@1@@Z
    ?WebRtcAec_GetSkew@webrtc@@YAHPAXHPAM@Z
    ?WebRtcAec_Init@webrtc@@YAHPAXHH@Z
    ?WebRtcAec_InitAec@webrtc@@YAHPAUAecCore@1@H@Z
    ?WebRtcAec_InitAec_SSE2@webrtc@@YAXXZ
    ?WebRtcAec_InitResampler@webrtc@@YAHPAXH@Z
    ?WebRtcAec_Overdrive@webrtc@@3P6AXMMQAM@ZA DATA
    ?WebRtcAec_PartitionDelay@webrtc@@3P6AHHQAY0ICA@M@ZA DATA
    ?WebRtcAec_Process@webrtc@@YAHPAXPBQBMIPBQAMIFH@Z
    ?WebRtcAec_ProcessFrames@webrtc@@YAXPAUAecCore@1@PBQBMIIHPBQAM@Z
    ?WebRtcAec_ResampleLinear@webrtc@@YAXPAXPBMIMPAMPAI@Z
    ?WebRtcAec_ScaleErrorSignal@webrtc@@3P6AXMMQAMQAY0EB@M@ZA DATA
    ?WebRtcAec_SetConfigCore@webrtc@@YAXPAUAecCore@1@HHH@Z
    ?WebRtcAec_SetSystemDelay@webrtc@@YAXPAUAecCore@1@H@Z
    ?WebRtcAec_StoreAsComplex@webrtc@@3P6AXPBMQAY0EB@M@ZA DATA
    ?WebRtcAec_Suppress@webrtc@@3P6AXQBMQAY0EB@M@ZA DATA
    ?WebRtcAec_UpdateCoherenceSpectra@webrtc@@3P6AXH_NQAY0EB@M11PAUCoherenceState@1@PAFPAH@ZA DATA
    ?WebRtcAec_WindowData@webrtc@@3P6AXPAMPBM@ZA DATA
    ?WebRtcAec_aec_core@webrtc@@YAPAUAecCore@1@PAX@Z
    ?WebRtcAec_delay_agnostic_enabled@webrtc@@YAHPAUAecCore@1@@Z
    ?WebRtcAec_echo_state@webrtc@@YAHPAUAecCore@1@@Z
    ?WebRtcAec_enable_delay_agnostic@webrtc@@YAXPAUAecCore@1@H@Z
    ?WebRtcAec_enable_extended_filter@webrtc@@YAXPAUAecCore@1@H@Z
    ?WebRtcAec_enable_refined_adaptive_filter@webrtc@@YAXPAUAecCore@1@_N@Z
    ?WebRtcAec_extended_filter_enabled@webrtc@@YAHPAUAecCore@1@@Z
    ?WebRtcAec_get_echo_status@webrtc@@YAHPAXPAH@Z
    ?WebRtcAec_kExtendedSmoothingCoefficients@webrtc@@3QAY01$$CBMA DATA
    ?WebRtcAec_kMinFarendPSD@webrtc@@3MB DATA
    ?WebRtcAec_kNormalSmoothingCoefficients@webrtc@@3QAY01$$CBMA DATA
    ?WebRtcAec_overDriveCurve@webrtc@@3QBMB DATA
    ?WebRtcAec_refined_adaptive_filter_enabled@webrtc@@YA_NPBUAecCore@1@@Z
    ?WebRtcAec_set_config@webrtc@@YAHPAXUAecConfig@1@@Z
    ?WebRtcAec_sqrtHanning@webrtc@@3QBMB DATA
    ?WebRtcAec_system_delay@webrtc@@YAHPAUAecCore@1@@Z
    ?WebRtcAec_weightCurve@webrtc@@3QBMB DATA
    ?WebRtcAecm_AlignedFarend@@YAPBGPAUAecmCore@@PAHH@Z
    ?WebRtcAecm_AsymFilt@@YAFFFFF@Z
    ?WebRtcAecm_BufferFarFrame@@YAXQAUAecmCore@@QBFH@Z
    ?WebRtcAecm_CalcEnergies@@YAXPAUAecmCore@@PBGFIPAH@Z
    ?WebRtcAecm_CalcLinearEnergies@@3P6AXPAUAecmCore@@PBGPAHPAI33@ZA DATA
    ?WebRtcAecm_CalcStepSize@@YAFQAUAecmCore@@@Z
    ?WebRtcAecm_CalcSuppressionGain@@YAFQAUAecmCore@@@Z
    ?WebRtcAecm_Control@@YAHPAUAecmCore@@HH@Z
    ?WebRtcAecm_CreateCore@@YAPAUAecmCore@@XZ
    ?WebRtcAecm_FetchFarFrame@@YAXQAUAecmCore@@QAFHH@Z
    ?WebRtcAecm_FreeCore@@YAXPAUAecmCore@@@Z
    ?WebRtcAecm_InitCore@@YAHQAUAecmCore@@H@Z
    ?WebRtcAecm_InitEchoPathCore@@YAXPAUAecmCore@@PBF@Z
    ?WebRtcAecm_ProcessBlock@@YAHPAUAecmCore@@PBF11PAF@Z
    ?WebRtcAecm_ProcessFrame@@YAHPAUAecmCore@@PBF11PAF@Z
    ?WebRtcAecm_ResetAdaptiveChannel@@3P6AXPAUAecmCore@@@ZA DATA
    ?WebRtcAecm_StoreAdaptiveChannel@@3P6AXPAUAecmCore@@PBGPAH@ZA DATA
    ?WebRtcAecm_UpdateChannel@@YAXPAUAecmCore@@PBGFQBGFPAH@Z
    ?WebRtcAecm_UpdateFarHistory@@YAXPAUAecmCore@@PAGH@Z
    ?WebRtcAecm_kCosTable@@3QBFB DATA
    ?WebRtcAecm_kSinTable@@3QBFB DATA
    ?WebRtc_AddBinaryFarSpectrum@@YAXPAUBinaryDelayEstimatorFarend@@I@Z
    ?WebRtc_AddFarSpectrumFix@@YAHPAXPBGHH@Z
    ?WebRtc_AddFarSpectrumFloat@@YAHPAXPBMH@Z
    ?WebRtc_AllocateFarendBufferMemory@@YAHPAUBinaryDelayEstimatorFarend@@H@Z
    ?WebRtc_AllocateHistoryBufferMemory@@YAHPAUBinaryDelayEstimator@@H@Z
    ?WebRtc_CreateBinaryDelayEstimator@@YAPAUBinaryDelayEstimator@@PAUBinaryDelayEstimatorFarend@@H@Z
    ?WebRtc_CreateBinaryDelayEstimatorFarend@@YAPAUBinaryDelayEstimatorFarend@@H@Z
    ?WebRtc_CreateDelayEstimator@@YAPAXPAXH@Z
    ?WebRtc_CreateDelayEstimatorFarend@@YAPAXHH@Z
    ?WebRtc_DelayEstimatorProcessFix@@YAHPAXPBGHH@Z
    ?WebRtc_DelayEstimatorProcessFloat@@YAHPAXPBMH@Z
    ?WebRtc_FreeBinaryDelayEstimator@@YAXPAUBinaryDelayEstimator@@@Z
    ?WebRtc_FreeBinaryDelayEstimatorFarend@@YAXPAUBinaryDelayEstimatorFarend@@@Z
    ?WebRtc_FreeDelayEstimator@@YAXPAX@Z
    ?WebRtc_FreeDelayEstimatorFarend@@YAXPAX@Z
    ?WebRtc_InitBinaryDelayEstimator@@YAXPAUBinaryDelayEstimator@@@Z
    ?WebRtc_InitBinaryDelayEstimatorFarend@@YAXPAUBinaryDelayEstimatorFarend@@@Z
    ?WebRtc_InitDelayEstimator@@YAHPAX@Z
    ?WebRtc_InitDelayEstimatorFarend@@YAHPAX@Z
    ?WebRtc_MeanEstimatorFix@@YAXHHPAH@Z
    ?WebRtc_ProcessBinarySpectrum@@YAHPAUBinaryDelayEstimator@@I@Z
    ?WebRtc_SoftResetBinaryDelayEstimator@@YAHPAUBinaryDelayEstimator@@H@Z
    ?WebRtc_SoftResetBinaryDelayEstimatorFarend@@YAXPAUBinaryDelayEstimatorFarend@@H@Z
    ?WebRtc_SoftResetDelayEstimator@@YAHPAXH@Z
    ?WebRtc_SoftResetDelayEstimatorFarend@@YAXPAXH@Z
    ?WebRtc_binary_last_delay@@YAHPAUBinaryDelayEstimator@@@Z
    ?WebRtc_binary_last_delay_quality@@YAMPAUBinaryDelayEstimator@@@Z
    ?WebRtc_enable_robust_validation@@YAHPAXH@Z
    ?WebRtc_get_allowed_offset@@YAHPBX@Z
    ?WebRtc_history_size@@YAHPBX@Z
    ?WebRtc_is_robust_validation_enabled@@YAHPBX@Z
    ?WebRtc_last_delay@@YAHPAX@Z
    ?WebRtc_last_delay_quality@@YAMPAX@Z
    ?WebRtc_lookahead@@YAHPAX@Z
    ?WebRtc_set_allowed_offset@@YAHPAXH@Z
    ?WebRtc_set_history_size@@YAHPAXH@Z
    ?WebRtc_set_lookahead@@YAHPAXH@Z
    ?WillReportMetricsAtNextCapture@ApiCallJitterMetrics@webrtc@@QBE_NXZ
    ?WriteAecDumpConfigMessage@AudioProcessingImpl@webrtc@@AAEX_N@Z
    ?WriteSamples@WavWriter@webrtc@@QAEXPBFI@Z
    ?WriteSamples@WavWriter@webrtc@@QAEXPBMI@Z
    ?WriteWavHeader@webrtc@@YAXPAEIHW4WavFormat@1@II@Z
    ?ZeroPaddedFft@Aec3Fft@webrtc@@QBEXV?$ArrayView@$$CBM$0?BCGH@@rtc@@W4Window@12@PAUFftData@2@@Z
    ?_Buy@?$vector@FV?$allocator@F@std@@@std@@AAE_NI@Z
    ?_Buy@?$vector@HV?$allocator@H@std@@@std@@AAE_NI@Z
    ?_Buy@?$vector@IV?$allocator@I@std@@@std@@AAE_NI@Z
    ?_Buy@?$vector@MV?$allocator@M@std@@@std@@AAE_NI@Z
    ?_Buy@?$vector@UBiQuad@CascadedBiQuadFilter@webrtc@@V?$allocator@UBiQuad@CascadedBiQuadFilter@webrtc@@@std@@@std@@AAE_NI@Z
    ?_Buy@?$vector@UBiQuadParam@CascadedBiQuadFilter@webrtc@@V?$allocator@UBiQuadParam@CascadedBiQuadFilter@webrtc@@@std@@@std@@AAE_NI@Z
    ?_Buy@?$vector@UFftData@webrtc@@V?$allocator@UFftData@webrtc@@@std@@@std@@AAE_NI@Z
    ?_Buy@?$vector@ULagEstimate@MatchedFilter@webrtc@@V?$allocator@ULagEstimate@MatchedFilter@webrtc@@@std@@@std@@AAE_NI@Z
    ?_Buy@?$vector@V?$ArrayView@M$0?BCGH@@rtc@@V?$allocator@V?$ArrayView@M$0?BCGH@@rtc@@@std@@@std@@AAE_NI@Z
    ?_Buy@?$vector@V?$array@M$05@std@@V?$allocator@V?$array@M$05@std@@@2@@std@@AAE_NI@Z
    ?_Buy@?$vector@V?$array@M$0EA@@std@@V?$allocator@V?$array@M$0EA@@std@@@2@@std@@AAE_NI@Z
    ?_Buy@?$vector@V?$array@M$0EB@@std@@V?$allocator@V?$array@M$0EB@@std@@@2@@std@@AAE_NI@Z
    ?_Buy@?$vector@V?$complex@M@std@@V?$allocator@V?$complex@M@std@@@2@@std@@AAE_NI@Z
    ?_Buy@?$vector@V?$vector@FV?$allocator@F@std@@@std@@V?$allocator@V?$vector@FV?$allocator@F@std@@@std@@@2@@std@@AAE_NI@Z
    ?_Buy@?$vector@V?$vector@MV?$allocator@M@std@@@std@@V?$allocator@V?$vector@MV?$allocator@M@std@@@std@@@2@@std@@AAE_NI@Z
    ?_Buy@?$vector@V?$vector@V?$vector@MV?$allocator@M@std@@@std@@V?$allocator@V?$vector@MV?$allocator@M@std@@@std@@@2@@std@@V?$allocator@V?$vector@V?$vector@MV?$allocator@M@std@@@std@@V?$allocator@V?$vector@MV?$allocator@M@std@@@std@@@2@@std@@@2@@std@@AAE_NI@Z
    ?_Buy@?$vector@VRuntimeSetting@AudioProcessing@webrtc@@V?$allocator@VRuntimeSetting@AudioProcessing@webrtc@@@std@@@std@@AAE_NI@Z
    ?_Change_array@?$vector@UBiQuad@CascadedBiQuadFilter@webrtc@@V?$allocator@UBiQuad@CascadedBiQuadFilter@webrtc@@@std@@@std@@AAEXQAUBiQuad@CascadedBiQuadFilter@webrtc@@II@Z
    ?_Change_array@?$vector@UChannelResampler@?$PushResampler@F@webrtc@@V?$allocator@UChannelResampler@?$PushResampler@F@webrtc@@@std@@@std@@AAEXQAUChannelResampler@?$PushResampler@F@webrtc@@II@Z
    ?_Change_array@?$vector@UChannelResampler@?$PushResampler@M@webrtc@@V?$allocator@UChannelResampler@?$PushResampler@M@webrtc@@@std@@@std@@AAEXQAUChannelResampler@?$PushResampler@M@webrtc@@II@Z
    ?_Change_array@?$vector@UFftData@webrtc@@V?$allocator@UFftData@webrtc@@@std@@@std@@AAEXQAUFftData@webrtc@@II@Z
    ?_Change_array@?$vector@V?$array@M$0EB@@std@@V?$allocator@V?$array@M$0EB@@std@@@2@@std@@AAEXQAV?$array@M$0EB@@2@II@Z
    ?_Change_array@?$vector@V?$basic_string@DU?$char_traits@D@std@@V?$allocator@D@2@@std@@V?$allocator@V?$basic_string@DU?$char_traits@D@std@@V?$allocator@D@2@@std@@@2@@std@@AAEXQAV?$basic_string@DU?$char_traits@D@std@@V?$allocator@D@2@@2@II@Z
    ?_Change_array@?$vector@V?$unique_ptr@V?$ChannelBuffer@M@webrtc@@U?$default_delete@V?$ChannelBuffer@M@webrtc@@@std@@@std@@V?$allocator@V?$unique_ptr@V?$ChannelBuffer@M@webrtc@@U?$default_delete@V?$ChannelBuffer@M@webrtc@@@std@@@std@@@2@@std@@AAEXQAV?$unique_ptr@V?$ChannelBuffer@M@webrtc@@U?$default_delete@V?$ChannelBuffer@M@webrtc@@@std@@@2@II@Z
    ?_Change_array@?$vector@V?$unique_ptr@VAudioConverter@webrtc@@U?$default_delete@VAudioConverter@webrtc@@@std@@@std@@V?$allocator@V?$unique_ptr@VAudioConverter@webrtc@@U?$default_delete@VAudioConverter@webrtc@@@std@@@std@@@2@@std@@AAEXQAV?$unique_ptr@VAudioConverter@webrtc@@U?$default_delete@VAudioConverter@webrtc@@@std@@@2@II@Z
    ?_Change_array@?$vector@V?$unique_ptr@VBiquadFilter@LowCutFilter@webrtc@@U?$default_delete@VBiquadFilter@LowCutFilter@webrtc@@@std@@@std@@V?$allocator@V?$unique_ptr@VBiquadFilter@LowCutFilter@webrtc@@U?$default_delete@VBiquadFilter@LowCutFilter@webrtc@@@std@@@std@@@2@@std@@AAEXQAV?$unique_ptr@VBiquadFilter@LowCutFilter@webrtc@@U?$default_delete@VBiquadFilter@LowCutFilter@webrtc@@@std@@@2@II@Z
    ?_Change_array@?$vector@V?$unique_ptr@VCanceller@EchoCancellationImpl@webrtc@@U?$default_delete@VCanceller@EchoCancellationImpl@webrtc@@@std@@@std@@V?$allocator@V?$unique_ptr@VCanceller@EchoCancellationImpl@webrtc@@U?$default_delete@VCanceller@EchoCancellationImpl@webrtc@@@std@@@std@@@2@@std@@AAEXQAV?$unique_ptr@VCanceller@EchoCancellationImpl@webrtc@@U?$default_delete@VCanceller@EchoCancellationImpl@webrtc@@@std@@@2@II@Z
    ?_Change_array@?$vector@V?$unique_ptr@VCanceller@EchoControlMobileImpl@webrtc@@U?$default_delete@VCanceller@EchoControlMobileImpl@webrtc@@@std@@@std@@V?$allocator@V?$unique_ptr@VCanceller@EchoControlMobileImpl@webrtc@@U?$default_delete@VCanceller@EchoControlMobileImpl@webrtc@@@std@@@std@@@2@@std@@AAEXQAV?$unique_ptr@VCanceller@EchoControlMobileImpl@webrtc@@U?$default_delete@VCanceller@EchoControlMobileImpl@webrtc@@@std@@@2@II@Z
    ?_Change_array@?$vector@V?$unique_ptr@VGainController@GainControlImpl@webrtc@@U?$default_delete@VGainController@GainControlImpl@webrtc@@@std@@@std@@V?$allocator@V?$unique_ptr@VGainController@GainControlImpl@webrtc@@U?$default_delete@VGainController@GainControlImpl@webrtc@@@std@@@std@@@2@@std@@AAEXQAV?$unique_ptr@VGainController@GainControlImpl@webrtc@@U?$default_delete@VGainController@GainControlImpl@webrtc@@@std@@@2@II@Z
    ?_Change_array@?$vector@V?$unique_ptr@VPushSincResampler@webrtc@@U?$default_delete@VPushSincResampler@webrtc@@@std@@@std@@V?$allocator@V?$unique_ptr@VPushSincResampler@webrtc@@U?$default_delete@VPushSincResampler@webrtc@@@std@@@std@@@2@@std@@AAEXQAV?$unique_ptr@VPushSincResampler@webrtc@@U?$default_delete@VPushSincResampler@webrtc@@@std@@@2@II@Z
    ?_Change_array@?$vector@V?$unique_ptr@VSparseFIRFilter@webrtc@@U?$default_delete@VSparseFIRFilter@webrtc@@@std@@@std@@V?$allocator@V?$unique_ptr@VSparseFIRFilter@webrtc@@U?$default_delete@VSparseFIRFilter@webrtc@@@std@@@std@@@2@@std@@AAEXQAV?$unique_ptr@VSparseFIRFilter@webrtc@@U?$default_delete@VSparseFIRFilter@webrtc@@@std@@@2@II@Z
    ?_Change_array@?$vector@V?$unique_ptr@VSuppressor@NoiseSuppressionImpl@webrtc@@U?$default_delete@VSuppressor@NoiseSuppressionImpl@webrtc@@@std@@@std@@V?$allocator@V?$unique_ptr@VSuppressor@NoiseSuppressionImpl@webrtc@@U?$default_delete@VSuppressor@NoiseSuppressionImpl@webrtc@@@std@@@std@@@2@@std@@AAEXQAV?$unique_ptr@VSuppressor@NoiseSuppressionImpl@webrtc@@U?$default_delete@VSuppressor@NoiseSuppressionImpl@webrtc@@@std@@@2@II@Z
    ?_Change_array@?$vector@V?$vector@MV?$allocator@M@std@@@std@@V?$allocator@V?$vector@MV?$allocator@M@std@@@std@@@2@@std@@AAEXQAV?$vector@MV?$allocator@M@std@@@2@II@Z
    ?_Construct_lv_contents@?$basic_string@DU?$char_traits@D@std@@V?$allocator@D@2@@std@@QAEXABV12@@Z
    ?_Destroy_if_node@?$_Tree@V?$_Tmap_traits@HHU?$less@H@std@@V?$allocator@U?$pair@$$CBHH@std@@@2@$0A@@std@@@std@@IAEXPAU?$_Tree_node@U?$pair@$$CBHH@std@@PAX@2@@Z
    ?_Destroy_if_node@?$_Tree@V?$_Tmap_traits@V?$basic_string@DU?$char_traits@D@std@@V?$allocator@D@2@@std@@V?$unique_ptr@USampleInfo@metrics@webrtc@@U?$default_delete@USampleInfo@metrics@webrtc@@@std@@@2@U?$less@V?$basic_string@DU?$char_traits@D@std@@V?$allocator@D@2@@std@@@2@V?$allocator@U?$pair@$$CBV?$basic_string@DU?$char_traits@D@std@@V?$allocator@D@2@@std@@V?$unique_ptr@USampleInfo@metrics@webrtc@@U?$default_delete@USampleInfo@metrics@webrtc@@@std@@@2@@std@@@2@$0A@@std@@@std@@IAEXPAU?$_Tree_node@U?$pair@$$CBV?$basic_string@DU?$char_traits@D@std@@V?$allocator@D@2@@std@@V?$unique_ptr@USampleInfo@metrics@webrtc@@U?$default_delete@USampleInfo@metrics@webrtc@@@std@@@2@@std@@PAX@2@@Z
    ?_Equal@?$basic_string@DU?$char_traits@D@std@@V?$allocator@D@2@@std@@QBE_NABV12@@Z
    ?_Equal@?$basic_string@DU?$char_traits@D@std@@V?$allocator@D@2@@std@@QBE_NQBD@Z
    ?_Erase@?$_Tree@V?$_Tmap_traits@HHU?$less@H@std@@V?$allocator@U?$pair@$$CBHH@std@@@2@$0A@@std@@@std@@IAEXPAU?$_Tree_node@U?$pair@$$CBHH@std@@PAX@2@@Z
    ?_Erase@?$_Tree@V?$_Tmap_traits@V?$basic_string@DU?$char_traits@D@std@@V?$allocator@D@2@@std@@V?$unique_ptr@USampleInfo@metrics@webrtc@@U?$default_delete@USampleInfo@metrics@webrtc@@@std@@@2@U?$less@V?$basic_string@DU?$char_traits@D@std@@V?$allocator@D@2@@std@@@2@V?$allocator@U?$pair@$$CBV?$basic_string@DU?$char_traits@D@std@@V?$allocator@D@2@@std@@V?$unique_ptr@USampleInfo@metrics@webrtc@@U?$default_delete@USampleInfo@metrics@webrtc@@@std@@@2@@std@@@2@$0A@@std@@@std@@IAEXPAU?$_Tree_node@U?$pair@$$CBV?$basic_string@DU?$char_traits@D@std@@V?$allocator@D@2@@std@@V?$unique_ptr@USampleInfo@metrics@webrtc@@U?$default_delete@USampleInfo@metrics@webrtc@@@std@@@2@@std@@PAX@2@@Z
    ?_Erase@?$_Tree@V?$_Tmap_traits@W4ConfigOptionID@webrtc@@PAUBaseOption@Config@2@U?$less@W4ConfigOptionID@webrtc@@@std@@V?$allocator@U?$pair@$$CBW4ConfigOptionID@webrtc@@PAUBaseOption@Config@2@@std@@@6@$0A@@std@@@std@@IAEXPAU?$_Tree_node@U?$pair@$$CBW4ConfigOptionID@webrtc@@PAUBaseOption@Config@2@@std@@PAX@2@@Z
    ?_Extract@?$_Tree_val@U?$_Tree_simple_types@U?$pair@$$CBHH@std@@@std@@@std@@QAEPAU?$_Tree_node@U?$pair@$$CBHH@std@@PAX@2@V?$_Tree_const_iterator@V?$_Tree_val@U?$_Tree_simple_types@U?$pair@$$CBHH@std@@@std@@@std@@@2@@Z
    ?_Extract@?$_Tree_val@U?$_Tree_simple_types@U?$pair@$$CBW4ConfigOptionID@webrtc@@PAUBaseOption@Config@2@@std@@@std@@@std@@QAEPAU?$_Tree_node@U?$pair@$$CBW4ConfigOptionID@webrtc@@PAUBaseOption@Config@2@@std@@PAX@2@V?$_Tree_const_iterator@V?$_Tree_val@U?$_Tree_simple_types@U?$pair@$$CBW4ConfigOptionID@webrtc@@PAUBaseOption@Config@2@@std@@@std@@@std@@@2@@Z
    ?_Growmap@?$deque@MV?$allocator@M@std@@@std@@IAEXI@Z
    ?_Lrotate@?$_Tree_val@U?$_Tree_simple_types@U?$pair@$$CBHH@std@@@std@@@std@@QAEXPAU?$_Tree_node@U?$pair@$$CBHH@std@@PAX@2@@Z
    ?_Lrotate@?$_Tree_val@U?$_Tree_simple_types@U?$pair@$$CBV?$basic_string@DU?$char_traits@D@std@@V?$allocator@D@2@@std@@V?$unique_ptr@USampleInfo@metrics@webrtc@@U?$default_delete@USampleInfo@metrics@webrtc@@@std@@@2@@std@@@std@@@std@@QAEXPAU?$_Tree_node@U?$pair@$$CBV?$basic_string@DU?$char_traits@D@std@@V?$allocator@D@2@@std@@V?$unique_ptr@USampleInfo@metrics@webrtc@@U?$default_delete@USampleInfo@metrics@webrtc@@@std@@@2@@std@@PAX@2@@Z
    ?_Lrotate@?$_Tree_val@U?$_Tree_simple_types@U?$pair@$$CBW4ConfigOptionID@webrtc@@PAUBaseOption@Config@2@@std@@@std@@@std@@QAEXPAU?$_Tree_node@U?$pair@$$CBW4ConfigOptionID@webrtc@@PAUBaseOption@Config@2@@std@@PAX@2@@Z
    ?_OptionsStorage@?1??__local_stdio_printf_options@@9@4_KA DATA
    ?_OptionsStorage@?1??__local_stdio_scanf_options@@9@4_KA DATA
    ?_Reallocate_exactly@?$vector@MV?$allocator@M@std@@@std@@AAEXI@Z
    ?_Reallocate_exactly@?$vector@V?$unique_ptr@VPushSincResampler@webrtc@@U?$default_delete@VPushSincResampler@webrtc@@@std@@@std@@V?$allocator@V?$unique_ptr@VPushSincResampler@webrtc@@U?$default_delete@VPushSincResampler@webrtc@@@std@@@std@@@2@@std@@AAEXI@Z
    ?_Rrotate@?$_Tree_val@U?$_Tree_simple_types@U?$pair@$$CBHH@std@@@std@@@std@@QAEXPAU?$_Tree_node@U?$pair@$$CBHH@std@@PAX@2@@Z
    ?_Rrotate@?$_Tree_val@U?$_Tree_simple_types@U?$pair@$$CBV?$basic_string@DU?$char_traits@D@std@@V?$allocator@D@2@@std@@V?$unique_ptr@USampleInfo@metrics@webrtc@@U?$default_delete@USampleInfo@metrics@webrtc@@@std@@@2@@std@@@std@@@std@@QAEXPAU?$_Tree_node@U?$pair@$$CBV?$basic_string@DU?$char_traits@D@std@@V?$allocator@D@2@@std@@V?$unique_ptr@USampleInfo@metrics@webrtc@@U?$default_delete@USampleInfo@metrics@webrtc@@@std@@@2@@std@@PAX@2@@Z
    ?_Rrotate@?$_Tree_val@U?$_Tree_simple_types@U?$pair@$$CBW4ConfigOptionID@webrtc@@PAUBaseOption@Config@2@@std@@@std@@@std@@QAEXPAU?$_Tree_node@U?$pair@$$CBW4ConfigOptionID@webrtc@@PAUBaseOption@Config@2@@std@@PAX@2@@Z
    ?_Tidy@?$deque@MV?$allocator@M@std@@@std@@IAEXXZ
    ?_Tidy@?$vector@FV?$allocator@F@std@@@std@@AAEXXZ
    ?_Tidy@?$vector@HV?$allocator@H@std@@@std@@AAEXXZ
    ?_Tidy@?$vector@IV?$allocator@I@std@@@std@@AAEXXZ
    ?_Tidy@?$vector@MV?$allocator@M@std@@@std@@AAEXXZ
    ?_Tidy@?$vector@NV?$allocator@N@std@@@std@@AAEXXZ
    ?_Tidy@?$vector@UBiQuad@CascadedBiQuadFilter@webrtc@@V?$allocator@UBiQuad@CascadedBiQuadFilter@webrtc@@@std@@@std@@AAEXXZ
    ?_Tidy@?$vector@UBiQuadParam@CascadedBiQuadFilter@webrtc@@V?$allocator@UBiQuadParam@CascadedBiQuadFilter@webrtc@@@std@@@std@@AAEXXZ
    ?_Tidy@?$vector@UChannelResampler@?$PushResampler@F@webrtc@@V?$allocator@UChannelResampler@?$PushResampler@F@webrtc@@@std@@@std@@AAEXXZ
    ?_Tidy@?$vector@UChannelResampler@?$PushResampler@M@webrtc@@V?$allocator@UChannelResampler@?$PushResampler@M@webrtc@@@std@@@std@@AAEXXZ
    ?_Tidy@?$vector@UFftData@webrtc@@V?$allocator@UFftData@webrtc@@@std@@@std@@AAEXXZ
    ?_Tidy@?$vector@ULagEstimate@MatchedFilter@webrtc@@V?$allocator@ULagEstimate@MatchedFilter@webrtc@@@std@@@std@@AAEXXZ
    ?_Tidy@?$vector@V?$ArrayView@M$0?BCGH@@rtc@@V?$allocator@V?$ArrayView@M$0?BCGH@@rtc@@@std@@@std@@AAEXXZ
    ?_Tidy@?$vector@V?$array@M$05@std@@V?$allocator@V?$array@M$05@std@@@2@@std@@AAEXXZ
    ?_Tidy@?$vector@V?$array@M$0EA@@std@@V?$allocator@V?$array@M$0EA@@std@@@2@@std@@AAEXXZ
    ?_Tidy@?$vector@V?$array@M$0EB@@std@@V?$allocator@V?$array@M$0EB@@std@@@2@@std@@AAEXXZ
    ?_Tidy@?$vector@V?$basic_string@DU?$char_traits@D@std@@V?$allocator@D@2@@std@@V?$allocator@V?$basic_string@DU?$char_traits@D@std@@V?$allocator@D@2@@std@@@2@@std@@AAEXXZ
    ?_Tidy@?$vector@V?$complex@M@std@@V?$allocator@V?$complex@M@std@@@2@@std@@AAEXXZ
    ?_Tidy@?$vector@V?$unique_ptr@V?$ChannelBuffer@M@webrtc@@U?$default_delete@V?$ChannelBuffer@M@webrtc@@@std@@@std@@V?$allocator@V?$unique_ptr@V?$ChannelBuffer@M@webrtc@@U?$default_delete@V?$ChannelBuffer@M@webrtc@@@std@@@std@@@2@@std@@AAEXXZ
    ?_Tidy@?$vector@V?$unique_ptr@VAudioConverter@webrtc@@U?$default_delete@VAudioConverter@webrtc@@@std@@@std@@V?$allocator@V?$unique_ptr@VAudioConverter@webrtc@@U?$default_delete@VAudioConverter@webrtc@@@std@@@std@@@2@@std@@AAEXXZ
    ?_Tidy@?$vector@V?$unique_ptr@VBiquadFilter@LowCutFilter@webrtc@@U?$default_delete@VBiquadFilter@LowCutFilter@webrtc@@@std@@@std@@V?$allocator@V?$unique_ptr@VBiquadFilter@LowCutFilter@webrtc@@U?$default_delete@VBiquadFilter@LowCutFilter@webrtc@@@std@@@std@@@2@@std@@AAEXXZ
    ?_Tidy@?$vector@V?$unique_ptr@VCanceller@EchoCancellationImpl@webrtc@@U?$default_delete@VCanceller@EchoCancellationImpl@webrtc@@@std@@@std@@V?$allocator@V?$unique_ptr@VCanceller@EchoCancellationImpl@webrtc@@U?$default_delete@VCanceller@EchoCancellationImpl@webrtc@@@std@@@std@@@2@@std@@AAEXXZ
    ?_Tidy@?$vector@V?$unique_ptr@VCanceller@EchoControlMobileImpl@webrtc@@U?$default_delete@VCanceller@EchoControlMobileImpl@webrtc@@@std@@@std@@V?$allocator@V?$unique_ptr@VCanceller@EchoControlMobileImpl@webrtc@@U?$default_delete@VCanceller@EchoControlMobileImpl@webrtc@@@std@@@std@@@2@@std@@AAEXXZ
    ?_Tidy@?$vector@V?$unique_ptr@VGainController@GainControlImpl@webrtc@@U?$default_delete@VGainController@GainControlImpl@webrtc@@@std@@@std@@V?$allocator@V?$unique_ptr@VGainController@GainControlImpl@webrtc@@U?$default_delete@VGainController@GainControlImpl@webrtc@@@std@@@std@@@2@@std@@AAEXXZ
    ?_Tidy@?$vector@V?$unique_ptr@VPushSincResampler@webrtc@@U?$default_delete@VPushSincResampler@webrtc@@@std@@@std@@V?$allocator@V?$unique_ptr@VPushSincResampler@webrtc@@U?$default_delete@VPushSincResampler@webrtc@@@std@@@std@@@2@@std@@AAEXXZ
    ?_Tidy@?$vector@V?$unique_ptr@VSparseFIRFilter@webrtc@@U?$default_delete@VSparseFIRFilter@webrtc@@@std@@@std@@V?$allocator@V?$unique_ptr@VSparseFIRFilter@webrtc@@U?$default_delete@VSparseFIRFilter@webrtc@@@std@@@std@@@2@@std@@AAEXXZ
    ?_Tidy@?$vector@V?$unique_ptr@VSuppressor@NoiseSuppressionImpl@webrtc@@U?$default_delete@VSuppressor@NoiseSuppressionImpl@webrtc@@@std@@@std@@V?$allocator@V?$unique_ptr@VSuppressor@NoiseSuppressionImpl@webrtc@@U?$default_delete@VSuppressor@NoiseSuppressionImpl@webrtc@@@std@@@std@@@2@@std@@AAEXXZ
    ?_Tidy@?$vector@V?$vector@FV?$allocator@F@std@@@std@@V?$allocator@V?$vector@FV?$allocator@F@std@@@std@@@2@@std@@AAEXXZ
    ?_Tidy@?$vector@V?$vector@MV?$allocator@M@std@@@std@@V?$allocator@V?$vector@MV?$allocator@M@std@@@std@@@2@@std@@AAEXXZ
    ?_Tidy@?$vector@V?$vector@V?$vector@MV?$allocator@M@std@@@std@@V?$allocator@V?$vector@MV?$allocator@M@std@@@std@@@2@@std@@V?$allocator@V?$vector@V?$vector@MV?$allocator@M@std@@@std@@V?$allocator@V?$vector@MV?$allocator@M@std@@@std@@@2@@std@@@2@@std@@AAEXXZ
    ?_Tidy@?$vector@VNormalizedCovarianceEstimator@webrtc@@V?$allocator@VNormalizedCovarianceEstimator@webrtc@@@std@@@std@@AAEXXZ
    ?_Tidy@?$vector@VRuntimeSetting@AudioProcessing@webrtc@@V?$allocator@VRuntimeSetting@AudioProcessing@webrtc@@@std@@@std@@AAEXXZ
    ?_Tidy_deallocate@?$basic_string@DU?$char_traits@D@std@@V?$allocator@D@2@@std@@QAEXXZ
    ?_Xlen@?$basic_string@DU?$char_traits@D@std@@V?$allocator@D@2@@std@@SAXXZ
    ?_Xlen@?$deque@MV?$allocator@M@std@@@std@@IBEXXZ
    ?_Xlength@?$vector@FV?$allocator@F@std@@@std@@CAXXZ
    ?_Xlength@?$vector@HV?$allocator@H@std@@@std@@CAXXZ
    ?_Xlength@?$vector@IV?$allocator@I@std@@@std@@CAXXZ
    ?_Xlength@?$vector@MV?$allocator@M@std@@@std@@CAXXZ
    ?_Xlength@?$vector@NV?$allocator@N@std@@@std@@CAXXZ
    ?_Xlength@?$vector@UBiQuad@CascadedBiQuadFilter@webrtc@@V?$allocator@UBiQuad@CascadedBiQuadFilter@webrtc@@@std@@@std@@CAXXZ
    ?_Xlength@?$vector@UBiQuadParam@CascadedBiQuadFilter@webrtc@@V?$allocator@UBiQuadParam@CascadedBiQuadFilter@webrtc@@@std@@@std@@CAXXZ
    ?_Xlength@?$vector@UFftData@webrtc@@V?$allocator@UFftData@webrtc@@@std@@@std@@CAXXZ
    ?_Xlength@?$vector@ULagEstimate@MatchedFilter@webrtc@@V?$allocator@ULagEstimate@MatchedFilter@webrtc@@@std@@@std@@CAXXZ
    ?_Xlength@?$vector@V?$ArrayView@M$0?BCGH@@rtc@@V?$allocator@V?$ArrayView@M$0?BCGH@@rtc@@@std@@@std@@CAXXZ
    ?_Xlength@?$vector@V?$array@M$05@std@@V?$allocator@V?$array@M$05@std@@@2@@std@@CAXXZ
    ?_Xlength@?$vector@V?$array@M$0EA@@std@@V?$allocator@V?$array@M$0EA@@std@@@2@@std@@CAXXZ
    ?_Xlength@?$vector@V?$array@M$0EB@@std@@V?$allocator@V?$array@M$0EB@@std@@@2@@std@@CAXXZ
    ?_Xlength@?$vector@V?$basic_string@DU?$char_traits@D@std@@V?$allocator@D@2@@std@@V?$allocator@V?$basic_string@DU?$char_traits@D@std@@V?$allocator@D@2@@std@@@2@@std@@CAXXZ
    ?_Xlength@?$vector@V?$complex@M@std@@V?$allocator@V?$complex@M@std@@@2@@std@@CAXXZ
    ?_Xlength@?$vector@V?$unique_ptr@VBiquadFilter@LowCutFilter@webrtc@@U?$default_delete@VBiquadFilter@LowCutFilter@webrtc@@@std@@@std@@V?$allocator@V?$unique_ptr@VBiquadFilter@LowCutFilter@webrtc@@U?$default_delete@VBiquadFilter@LowCutFilter@webrtc@@@std@@@std@@@2@@std@@CAXXZ
    ?_Xlength@?$vector@V?$unique_ptr@VCanceller@EchoCancellationImpl@webrtc@@U?$default_delete@VCanceller@EchoCancellationImpl@webrtc@@@std@@@std@@V?$allocator@V?$unique_ptr@VCanceller@EchoCancellationImpl@webrtc@@U?$default_delete@VCanceller@EchoCancellationImpl@webrtc@@@std@@@std@@@2@@std@@CAXXZ
    ?_Xlength@?$vector@V?$unique_ptr@VCanceller@EchoControlMobileImpl@webrtc@@U?$default_delete@VCanceller@EchoControlMobileImpl@webrtc@@@std@@@std@@V?$allocator@V?$unique_ptr@VCanceller@EchoControlMobileImpl@webrtc@@U?$default_delete@VCanceller@EchoControlMobileImpl@webrtc@@@std@@@std@@@2@@std@@CAXXZ
    ?_Xlength@?$vector@V?$unique_ptr@VGainController@GainControlImpl@webrtc@@U?$default_delete@VGainController@GainControlImpl@webrtc@@@std@@@std@@V?$allocator@V?$unique_ptr@VGainController@GainControlImpl@webrtc@@U?$default_delete@VGainController@GainControlImpl@webrtc@@@std@@@std@@@2@@std@@CAXXZ
    ?_Xlength@?$vector@V?$unique_ptr@VPushSincResampler@webrtc@@U?$default_delete@VPushSincResampler@webrtc@@@std@@@std@@V?$allocator@V?$unique_ptr@VPushSincResampler@webrtc@@U?$default_delete@VPushSincResampler@webrtc@@@std@@@std@@@2@@std@@CAXXZ
    ?_Xlength@?$vector@V?$unique_ptr@VSuppressor@NoiseSuppressionImpl@webrtc@@U?$default_delete@VSuppressor@NoiseSuppressionImpl@webrtc@@@std@@@std@@V?$allocator@V?$unique_ptr@VSuppressor@NoiseSuppressionImpl@webrtc@@U?$default_delete@VSuppressor@NoiseSuppressionImpl@webrtc@@@std@@@std@@@2@@std@@CAXXZ
    ?_Xlength@?$vector@V?$vector@FV?$allocator@F@std@@@std@@V?$allocator@V?$vector@FV?$allocator@F@std@@@std@@@2@@std@@CAXXZ
    ?_Xlength@?$vector@V?$vector@MV?$allocator@M@std@@@std@@V?$allocator@V?$vector@MV?$allocator@M@std@@@std@@@2@@std@@CAXXZ
    ?_Xlength@?$vector@V?$vector@V?$vector@MV?$allocator@M@std@@@std@@V?$allocator@V?$vector@MV?$allocator@M@std@@@std@@@2@@std@@V?$allocator@V?$vector@V?$vector@MV?$allocator@M@std@@@std@@V?$allocator@V?$vector@MV?$allocator@M@std@@@std@@@2@@std@@@2@@std@@CAXXZ
    ?_Xlength@?$vector@VRuntimeSetting@AudioProcessing@webrtc@@V?$allocator@VRuntimeSetting@AudioProcessing@webrtc@@@std@@@std@@CAXXZ
    ?_Xran@?$_String_val@U?$_Simple_types@D@std@@@std@@SAXXZ
    ?activity@AudioBuffer@webrtc@@QBE?AW4VADActivity@AudioFrame@2@XZ
    ?aec_core@EchoCancellationImpl@webrtc@@QBEPAUAecCore@2@XZ
    ?analog_level_maximum@GainControlForExperimentalAgc@webrtc@@UBEHXZ
    ?analog_level_maximum@GainControlImpl@webrtc@@EBEHXZ
    ?analog_level_minimum@GainControlForExperimentalAgc@webrtc@@UBEHXZ
    ?analog_level_minimum@GainControlImpl@webrtc@@EBEHXZ
    ?append@?$basic_string@DU?$char_traits@D@std@@V?$allocator@D@2@@std@@QAEAAV12@ID@Z
    ?append@?$basic_string@DU?$char_traits@D@std@@V?$allocator@D@2@@std@@QAEAAV12@QBDI@Z
    ?approximation_params_m_@InterpolatedGainCurve@webrtc@@0V?$array@M$0CA@@std@@B DATA
    ?approximation_params_q_@InterpolatedGainCurve@webrtc@@0V?$array@M$0CA@@std@@B DATA
    ?approximation_params_x_@InterpolatedGainCurve@webrtc@@0V?$array@M$0CA@@std@@B DATA
    ?are_metrics_enabled@EchoCancellationImpl@webrtc@@QBE_NXZ
    ?assign@?$basic_string@DU?$char_traits@D@std@@V?$allocator@D@2@@std@@QAEAAV12@ABV12@II@Z
    ?assign@?$basic_string@DU?$char_traits@D@std@@V?$allocator@D@2@@std@@QAEAAV12@ID@Z
    ?assign@?$basic_string@DU?$char_traits@D@std@@V?$allocator@D@2@@std@@QAEAAV12@QBDI@Z
    ?assign@?$vector@MV?$allocator@M@std@@@std@@QAEXIABM@Z
    ?bitrv2_128@OouraFft@webrtc@@ABEXPAM@Z
    ?build@Builder@VideoFrame@webrtc@@QAE?AV23@XZ
    ?cft1st_128@OouraFft@webrtc@@ABEXPAM@Z
    ?cft1st_128_SSE2@webrtc@@YAXPAM@Z
    ?cftbsub_128@OouraFft@webrtc@@ABEXPAM@Z
    ?cftfsub_128@OouraFft@webrtc@@ABEXPAM@Z
    ?cftmdl_128@OouraFft@webrtc@@ABEXPAM@Z
    ?cftmdl_128_SSE2@webrtc@@YAXPAM@Z
    ?channels@AudioBuffer@webrtc@@QAEPBQAFXZ
    ?channels_const@AudioBuffer@webrtc@@QBEPBQBFXZ
    ?channels_const_f@AudioBuffer@webrtc@@QBEPBQBMXZ
    ?channels_f@AudioBuffer@webrtc@@QAEPBQAMXZ
    ?chroma_siting_horizontal@ColorSpace@webrtc@@QBE?AW4ChromaSiting@12@XZ
    ?chroma_siting_vertical@ColorSpace@webrtc@@QBE?AW4ChromaSiting@12@XZ
    ?clear@?$list@U?$pair@PAVLogSink@rtc@@W4LoggingSeverity@2@@std@@V?$allocator@U?$pair@PAVLogSink@rtc@@W4LoggingSeverity@2@@std@@@2@@std@@QAEXXZ
    ?clear@?$list@V?$scoped_refptr@V?$RefCountedObject@VI420Buffer@webrtc@@@rtc@@@rtc@@V?$allocator@V?$scoped_refptr@V?$RefCountedObject@VI420Buffer@webrtc@@@rtc@@@rtc@@@std@@@std@@QAEXXZ
    ?compare@?$basic_string@DU?$char_traits@D@std@@V?$allocator@D@2@@std@@QBEHABV12@@Z
    ?compression_gain_db@GainControlForExperimentalAgc@webrtc@@UBEHXZ
    ?compression_gain_db@GainControlImpl@webrtc@@UBEHXZ
    ?data@AudioBuffer@webrtc@@QAEPAV?$ChannelBuffer@F@2@XZ
    ?data@AudioBuffer@webrtc@@QBEPBV?$ChannelBuffer@F@2@XZ
    ?data@AudioFrame@webrtc@@QBEPBFXZ
    ?data_f@AudioBuffer@webrtc@@QAEPAV?$ChannelBuffer@M@2@XZ
    ?data_f@AudioBuffer@webrtc@@QBEPBV?$ChannelBuffer@M@2@XZ
    ?deallocate@?$_Default_allocator_traits@V?$allocator@PAF@std@@@std@@SAXAAV?$allocator@PAF@2@QAPAFI@Z
    ?deallocate@?$_Default_allocator_traits@V?$allocator@PAM@std@@@std@@SAXAAV?$allocator@PAM@2@QAPAMI@Z
    ?deallocate@?$allocator@D@std@@QAEXQADI@Z
    ?deallocate@?$allocator@F@std@@QAEXQAFI@Z
    ?deallocate@?$allocator@H@std@@QAEXQAHI@Z
    ?deallocate@?$allocator@I@std@@QAEXQAII@Z
    ?deallocate@?$allocator@M@std@@QAEXQAMI@Z
    ?deallocate@?$allocator@N@std@@QAEXQANI@Z
    ?deallocate@?$allocator@PAM@std@@QAEXQAPAMI@Z
    ?deallocate@?$allocator@UBiQuad@CascadedBiQuadFilter@webrtc@@@std@@QAEXQAUBiQuad@CascadedBiQuadFilter@webrtc@@I@Z
    ?deallocate@?$allocator@UBiQuadParam@CascadedBiQuadFilter@webrtc@@@std@@QAEXQAUBiQuadParam@CascadedBiQuadFilter@webrtc@@I@Z
    ?deallocate@?$allocator@UChannelResampler@?$PushResampler@F@webrtc@@@std@@QAEXQAUChannelResampler@?$PushResampler@F@webrtc@@I@Z
    ?deallocate@?$allocator@UChannelResampler@?$PushResampler@M@webrtc@@@std@@QAEXQAUChannelResampler@?$PushResampler@M@webrtc@@I@Z
    ?deallocate@?$allocator@UFftData@webrtc@@@std@@QAEXQAUFftData@webrtc@@I@Z
    ?deallocate@?$allocator@ULagEstimate@MatchedFilter@webrtc@@@std@@QAEXQAULagEstimate@MatchedFilter@webrtc@@I@Z
    ?deallocate@?$allocator@V?$ArrayView@M$0?BCGH@@rtc@@@std@@QAEXQAV?$ArrayView@M$0?BCGH@@rtc@@I@Z
    ?deallocate@?$allocator@V?$array@M$05@std@@@std@@QAEXQAV?$array@M$05@2@I@Z
    ?deallocate@?$allocator@V?$array@M$0EA@@std@@@std@@QAEXQAV?$array@M$0EA@@2@I@Z
    ?deallocate@?$allocator@V?$array@M$0EB@@std@@@std@@QAEXQAV?$array@M$0EB@@2@I@Z
    ?deallocate@?$allocator@V?$basic_string@DU?$char_traits@D@std@@V?$allocator@D@2@@std@@@std@@QAEXQAV?$basic_string@DU?$char_traits@D@std@@V?$allocator@D@2@@2@I@Z
    ?deallocate@?$allocator@V?$complex@M@std@@@std@@QAEXQAV?$complex@M@2@I@Z
    ?deallocate@?$allocator@V?$unique_ptr@V?$ChannelBuffer@M@webrtc@@U?$default_delete@V?$ChannelBuffer@M@webrtc@@@std@@@std@@@std@@QAEXQAV?$unique_ptr@V?$ChannelBuffer@M@webrtc@@U?$default_delete@V?$ChannelBuffer@M@webrtc@@@std@@@2@I@Z
    ?deallocate@?$allocator@V?$unique_ptr@VAudioConverter@webrtc@@U?$default_delete@VAudioConverter@webrtc@@@std@@@std@@@std@@QAEXQAV?$unique_ptr@VAudioConverter@webrtc@@U?$default_delete@VAudioConverter@webrtc@@@std@@@2@I@Z
    ?deallocate@?$allocator@V?$unique_ptr@VBiquadFilter@LowCutFilter@webrtc@@U?$default_delete@VBiquadFilter@LowCutFilter@webrtc@@@std@@@std@@@std@@QAEXQAV?$unique_ptr@VBiquadFilter@LowCutFilter@webrtc@@U?$default_delete@VBiquadFilter@LowCutFilter@webrtc@@@std@@@2@I@Z
    ?deallocate@?$allocator@V?$unique_ptr@VCanceller@EchoCancellationImpl@webrtc@@U?$default_delete@VCanceller@EchoCancellationImpl@webrtc@@@std@@@std@@@std@@QAEXQAV?$unique_ptr@VCanceller@EchoCancellationImpl@webrtc@@U?$default_delete@VCanceller@EchoCancellationImpl@webrtc@@@std@@@2@I@Z
    ?deallocate@?$allocator@V?$unique_ptr@VCanceller@EchoControlMobileImpl@webrtc@@U?$default_delete@VCanceller@EchoControlMobileImpl@webrtc@@@std@@@std@@@std@@QAEXQAV?$unique_ptr@VCanceller@EchoControlMobileImpl@webrtc@@U?$default_delete@VCanceller@EchoControlMobileImpl@webrtc@@@std@@@2@I@Z
    ?deallocate@?$allocator@V?$unique_ptr@VGainController@GainControlImpl@webrtc@@U?$default_delete@VGainController@GainControlImpl@webrtc@@@std@@@std@@@std@@QAEXQAV?$unique_ptr@VGainController@GainControlImpl@webrtc@@U?$default_delete@VGainController@GainControlImpl@webrtc@@@std@@@2@I@Z
    ?deallocate@?$allocator@V?$unique_ptr@VPushSincResampler@webrtc@@U?$default_delete@VPushSincResampler@webrtc@@@std@@@std@@@std@@QAEXQAV?$unique_ptr@VPushSincResampler@webrtc@@U?$default_delete@VPushSincResampler@webrtc@@@std@@@2@I@Z
    ?deallocate@?$allocator@V?$unique_ptr@VSparseFIRFilter@webrtc@@U?$default_delete@VSparseFIRFilter@webrtc@@@std@@@std@@@std@@QAEXQAV?$unique_ptr@VSparseFIRFilter@webrtc@@U?$default_delete@VSparseFIRFilter@webrtc@@@std@@@2@I@Z
    ?deallocate@?$allocator@V?$unique_ptr@VSuppressor@NoiseSuppressionImpl@webrtc@@U?$default_delete@VSuppressor@NoiseSuppressionImpl@webrtc@@@std@@@std@@@std@@QAEXQAV?$unique_ptr@VSuppressor@NoiseSuppressionImpl@webrtc@@U?$default_delete@VSuppressor@NoiseSuppressionImpl@webrtc@@@std@@@2@I@Z
    ?deallocate@?$allocator@V?$vector@FV?$allocator@F@std@@@std@@@std@@QAEXQAV?$vector@FV?$allocator@F@std@@@2@I@Z
    ?deallocate@?$allocator@V?$vector@MV?$allocator@M@std@@@std@@@std@@QAEXQAV?$vector@MV?$allocator@M@std@@@2@I@Z
    ?deallocate@?$allocator@V?$vector@V?$vector@MV?$allocator@M@std@@@std@@V?$allocator@V?$vector@MV?$allocator@M@std@@@std@@@2@@std@@@std@@QAEXQAV?$vector@V?$vector@MV?$allocator@M@std@@@std@@V?$allocator@V?$vector@MV?$allocator@M@std@@@std@@@2@@2@I@Z
    ?deallocate@?$allocator@VNormalizedCovarianceEstimator@webrtc@@@std@@QAEXQAVNormalizedCovarianceEstimator@webrtc@@I@Z
    ?deallocate@?$allocator@VRuntimeSetting@AudioProcessing@webrtc@@@std@@QAEXQAVRuntimeSetting@AudioProcessing@webrtc@@I@Z
    ?def@?1???$default_value@UDelayAgnostic@webrtc@@@Config@webrtc@@CAABUDelayAgnostic@2@XZ@4QBU32@B DATA
    ?def@?1???$default_value@UExperimentalAgc@webrtc@@@Config@webrtc@@CAABUExperimentalAgc@2@XZ@4QBU32@B DATA
    ?def@?1???$default_value@UExperimentalNs@webrtc@@@Config@webrtc@@CAABUExperimentalNs@2@XZ@4QBU32@B DATA
    ?def@?1???$default_value@UExtendedFilter@webrtc@@@Config@webrtc@@CAABUExtendedFilter@2@XZ@4QBU32@B DATA
    ?def@?1???$default_value@URefinedAdaptiveFilter@webrtc@@@Config@webrtc@@CAABURefinedAdaptiveFilter@2@XZ@4QBU32@B DATA
    ?delay_offset_ms@AudioProcessingImpl@webrtc@@UBEHXZ
    ?empty_data@AudioFrame@webrtc@@CAPBFXZ
    ?enable_comfort_noise@EchoControlMobileImpl@webrtc@@QAEH_N@Z
    ?enable_delay_logging@EchoCancellationImpl@webrtc@@QAEH_N@Z
    ?enable_drift_compensation@EchoCancellationImpl@webrtc@@QAEH_N@Z
    ?enable_limiter@GainControlForExperimentalAgc@webrtc@@UAEH_N@Z
    ?enable_limiter@GainControlImpl@webrtc@@EAEH_N@Z
    ?enable_metrics@EchoCancellationImpl@webrtc@@QAEH_N@Z
    ?erase@?$_Tree@V?$_Tmap_traits@HHU?$less@H@std@@V?$allocator@U?$pair@$$CBHH@std@@@2@$0A@@std@@@std@@QAE?AV?$_Tree_iterator@V?$_Tree_val@U?$_Tree_simple_types@U?$pair@$$CBHH@std@@@std@@@std@@@2@V?$_Tree_const_iterator@V?$_Tree_val@U?$_Tree_simple_types@U?$pair@$$CBHH@std@@@std@@@std@@@2@0@Z
    ?erase@?$_Tree@V?$_Tmap_traits@HHU?$less@H@std@@V?$allocator@U?$pair@$$CBHH@std@@@2@$0A@@std@@@std@@QAE?AV?$_Tree_iterator@V?$_Tree_val@U?$_Tree_simple_types@U?$pair@$$CBHH@std@@@std@@@std@@@2@V?$_Tree_const_iterator@V?$_Tree_val@U?$_Tree_simple_types@U?$pair@$$CBHH@std@@@std@@@std@@@2@@Z
    ?erase@?$_Tree@V?$_Tmap_traits@W4ConfigOptionID@webrtc@@PAUBaseOption@Config@2@U?$less@W4ConfigOptionID@webrtc@@@std@@V?$allocator@U?$pair@$$CBW4ConfigOptionID@webrtc@@PAUBaseOption@Config@2@@std@@@6@$0A@@std@@@std@@QAE?AV?$_Tree_iterator@V?$_Tree_val@U?$_Tree_simple_types@U?$pair@$$CBW4ConfigOptionID@webrtc@@PAUBaseOption@Config@2@@std@@@std@@@std@@@2@V?$_Tree_const_iterator@V?$_Tree_val@U?$_Tree_simple_types@U?$pair@$$CBW4ConfigOptionID@webrtc@@PAUBaseOption@Config@2@@std@@@std@@@std@@@2@0@Z
    ?erase@?$_Tree@V?$_Tmap_traits@W4ConfigOptionID@webrtc@@PAUBaseOption@Config@2@U?$less@W4ConfigOptionID@webrtc@@@std@@V?$allocator@U?$pair@$$CBW4ConfigOptionID@webrtc@@PAUBaseOption@Config@2@@std@@@6@$0A@@std@@@std@@QAE?AV?$_Tree_iterator@V?$_Tree_val@U?$_Tree_simple_types@U?$pair@$$CBW4ConfigOptionID@webrtc@@PAUBaseOption@Config@2@@std@@@std@@@std@@@2@V?$_Tree_const_iterator@V?$_Tree_val@U?$_Tree_simple_types@U?$pair@$$CBW4ConfigOptionID@webrtc@@PAUBaseOption@Config@2@@std@@@std@@@std@@@2@@Z
    ?erase@?$list@V?$scoped_refptr@V?$RefCountedObject@VI420Buffer@webrtc@@@rtc@@@rtc@@V?$allocator@V?$scoped_refptr@V?$RefCountedObject@VI420Buffer@webrtc@@@rtc@@@rtc@@@std@@@std@@QAE?AV?$_List_iterator@V?$_List_val@U?$_List_simple_types@V?$scoped_refptr@V?$RefCountedObject@VI420Buffer@webrtc@@@rtc@@@rtc@@@std@@@std@@@2@V?$_List_const_iterator@V?$_List_val@U?$_List_simple_types@V?$scoped_refptr@V?$RefCountedObject@VI420Buffer@webrtc@@@rtc@@@rtc@@@std@@@std@@@2@@Z
    ?fbuf@IFChannelBuffer@webrtc@@QAEPAV?$ChannelBuffer@M@2@XZ
    ?fbuf_const@IFChannelBuffer@webrtc@@QBEPBV?$ChannelBuffer@M@2@XZ
    ?fill_input_buffer@libyuv@@YAHPAUjpeg_decompress_struct@@@Z
    ?find@?$basic_string@DU?$char_traits@D@std@@V?$allocator@D@2@@std@@QBEIDI@Z
    ?find@?$basic_string@DU?$char_traits@D@std@@V?$allocator@D@2@@std@@QBEIQBDI@Z
    ?find_first_not_of@?$basic_string@DU?$char_traits@D@std@@V?$allocator@D@2@@std@@QBEIQBDI@Z
    ?find_last_not_of@?$basic_string@DU?$char_traits@D@std@@V?$allocator@D@2@@std@@QBEIQBDI@Z
    ?frame_size_ms@VoiceDetectionImpl@webrtc@@UBEHXZ
    ?g_clock@rtc@@3PAVClockInterface@1@A DATA
    ?gain_control@AudioProcessingImpl@webrtc@@UBEPAVGainControl@2@XZ
    ?hdr_metadata@ColorSpace@webrtc@@QBEPBUHdrMetadata@2@XZ
    ?height@I420Buffer@webrtc@@UBEHXZ
    ?height@VideoFrame@webrtc@@QBEHXZ
    ?hex_decode@rtc@@YAIPADIABV?$basic_string@DU?$char_traits@D@std@@V?$allocator@D@2@@std@@@Z
    ?hex_decode@rtc@@YAIPADIPBDI@Z
    ?hex_decode@rtc@@YA_NDPAE@Z
    ?hex_decode_with_delimiter@rtc@@YAIPADIABV?$basic_string@DU?$char_traits@D@std@@V?$allocator@D@2@@std@@D@Z
    ?hex_decode_with_delimiter@rtc@@YAIPADIPBDID@Z
    ?hex_encode@rtc@@YA?AV?$basic_string@DU?$char_traits@D@std@@V?$allocator@D@2@@std@@ABV23@@Z
    ?hex_encode@rtc@@YA?AV?$basic_string@DU?$char_traits@D@std@@V?$allocator@D@2@@std@@PBDI@Z
    ?hex_encode@rtc@@YADE@Z
    ?hex_encode@rtc@@YAIPADIPBDI@Z
    ?hex_encode_with_delimiter@rtc@@YA?AV?$basic_string@DU?$char_traits@D@std@@V?$allocator@D@2@@std@@PBDID@Z
    ?hex_encode_with_delimiter@rtc@@YAIPADIPBDID@Z
    ?ibuf@IFChannelBuffer@webrtc@@QAEPAV?$ChannelBuffer@F@2@XZ
    ?ibuf_const@IFChannelBuffer@webrtc@@QBEPBV?$ChannelBuffer@F@2@XZ
    ?init_source@libyuv@@YAXPAUjpeg_decompress_struct@@@Z
    ?insert@?$basic_string@DU?$char_traits@D@std@@V?$allocator@D@2@@std@@QAEAAV12@IQBDI@Z
    ?instance_count@Aec@webrtc@@2HA DATA
    ?instance_count_@AecState@webrtc@@0HA DATA
    ?instance_count_@AudioProcessingImpl@webrtc@@0HA DATA
    ?instance_count_@EchoCanceller3@webrtc@@0HA DATA
    ?instance_count_@FilterAnalyzer@webrtc@@0HA DATA
    ?instance_count_@GainController2@webrtc@@0HA DATA
    ?instance_count_@MainFilterUpdateGain@webrtc@@0HA DATA
    ?instance_count_@ResidualEchoDetector@webrtc@@0HA DATA
    ?instance_count_@StationarityEstimator@webrtc@@0HA DATA
    ?instance_count_@SuppressionGain@webrtc@@0HA DATA
    ?instance_counter_@AgcManagerDirect@webrtc@@0HA DATA
    ?instance_counter_@GainControlForExperimentalAgc@webrtc@@0HA DATA
    ?instance_counter_@GainControlImpl@webrtc@@0HA DATA
    ?internal_log_function@raw_logging_internal@absl@@3V?$AtomicHook@P6AXW4LogSeverity@absl@@PBDHABV?$basic_string@DU?$char_traits@D@std@@V?$allocator@D@2@@std@@@Z@base_internal@2@A DATA
    ?is_comfort_noise_enabled@EchoControlMobileImpl@webrtc@@QBE_NXZ
    ?is_delay_agnostic_enabled@EchoCancellationImpl@webrtc@@QBE_NXZ
    ?is_delay_logging_enabled@EchoCancellationImpl@webrtc@@QBE_NXZ
    ?is_drift_compensation_enabled@EchoCancellationImpl@webrtc@@QBE_NXZ
    ?is_enabled@EchoCancellationImpl@webrtc@@QBE_NXZ
    ?is_enabled@EchoControlMobileImpl@webrtc@@QBE_NXZ
    ?is_enabled@GainControlForExperimentalAgc@webrtc@@UBE_NXZ
    ?is_enabled@GainControlImpl@webrtc@@UBE_NXZ
    ?is_enabled@LevelEstimatorImpl@webrtc@@UBE_NXZ
    ?is_enabled@NoiseSuppressionImpl@webrtc@@UBE_NXZ
    ?is_enabled@NoiseSuppressionProxy@webrtc@@UBE_NXZ
    ?is_enabled@VoiceDetectionImpl@webrtc@@UBE_NXZ
    ?is_extended_filter_enabled@EchoCancellationImpl@webrtc@@QBE_NXZ
    ?is_limiter_enabled@GainControlForExperimentalAgc@webrtc@@UBE_NXZ
    ?is_limiter_enabled@GainControlImpl@webrtc@@UBE_NXZ
    ?is_refined_adaptive_filter_enabled@EchoCancellationImpl@webrtc@@QBE_NXZ
    ?join@rtc@@YA?AV?$basic_string@DU?$char_traits@D@std@@V?$allocator@D@2@@std@@ABV?$vector@V?$basic_string@DU?$char_traits@D@std@@V?$allocator@D@2@@std@@V?$allocator@V?$basic_string@DU?$char_traits@D@std@@V?$allocator@D@2@@std@@@2@@3@D@Z
    ?kColorSpaceCMYK@MJpegDecoder@libyuv@@2HB DATA
    ?kColorSpaceGrayscale@MJpegDecoder@libyuv@@2HB DATA
    ?kColorSpaceRgb@MJpegDecoder@libyuv@@2HB DATA
    ?kColorSpaceUnknown@MJpegDecoder@libyuv@@2HB DATA
    ?kColorSpaceYCCK@MJpegDecoder@libyuv@@2HB DATA
    ?kColorSpaceYCbCr@MJpegDecoder@libyuv@@2HB DATA
    ?kFftBufferAlignment@RealFourier@webrtc@@2IB DATA
    ?kHiddenGruBias@rnnoise@@3QBCB DATA
    ?kHiddenGruRecurrentWeights@rnnoise@@3QBCB DATA
    ?kHiddenGruWeights@rnnoise@@3QBCB DATA
    ?kInputDenseBias@rnnoise@@3QBCB DATA
    ?kInputDenseWeights@rnnoise@@3QBCB DATA
    ?kMotionMagnitudeThreshold@webrtc@@3HB DATA
    ?kNativeSampleRatesHz@AudioProcessing@webrtc@@2QBHB DATA
    ?kOutputDenseBias@rnnoise@@3QBCB DATA
    ?kOutputDenseWeights@rnnoise@@3QBCB DATA
    ?kSumDiffThreshold@webrtc@@3HB DATA
    ?kSumDiffThresholdHigh@webrtc@@3HB DATA
    ?kTansigTable@?1??TansigApproximated@rnnoise@@YAMM@Z@4QBMB DATA
    ?keyboard_data@AudioBuffer@webrtc@@QBEPBMXZ
    ?level@NoiseSuppressionImpl@webrtc@@UBE?AW4Level@NoiseSuppression@2@XZ
    ?level@NoiseSuppressionProxy@webrtc@@UBE?AW4Level@NoiseSuppression@2@XZ
    ?level_estimator@AudioProcessingImpl@webrtc@@UBEPAVLevelEstimator@2@XZ
    ?likelihood@VoiceDetectionImpl@webrtc@@UBE?AW4Likelihood@VoiceDetection@2@XZ
    ?locked@TryCritScope@rtc@@QBE_NXZ
    ?log_to_stderr_@LogMessage@rtc@@0_NA DATA
    ?low_pass_reference@AudioBuffer@webrtc@@QBEPBFH@Z
    ?matrix@ColorSpace@webrtc@@QBE?AW4MatrixID@12@XZ
    ?max@MovingMax@webrtc@@QBEMXZ
    ?mean@MeanVarianceEstimator@webrtc@@QBEMXZ
    ?mixed_low_pass_data@AudioBuffer@webrtc@@QAEPBFXZ
    ?mode@GainControlForExperimentalAgc@webrtc@@UBE?AW4Mode@GainControl@2@XZ
    ?mode@GainControlImpl@webrtc@@UBE?AW4Mode@GainControl@2@XZ
    ?mutable_data@AudioFrame@webrtc@@QAEPAFXZ
    ?muted@AudioFrame@webrtc@@QBE_NXZ
    ?noise_suppression@AudioProcessingImpl@webrtc@@UBEPAVNoiseSuppression@2@XZ
    ?num_bands@AudioBuffer@webrtc@@QBEIXZ
    ?num_channels@AudioBuffer@webrtc@@QBEIXZ
    ?num_channels@WavReader@webrtc@@UBEIXZ
    ?num_channels@WavWriter@webrtc@@UBEIXZ
    ?num_frames@AudioBuffer@webrtc@@QBEIXZ
    ?num_frames_per_band@AudioBuffer@webrtc@@QBEIXZ
    ?num_input_channels@AudioProcessingImpl@webrtc@@UBEIXZ
    ?num_keyboard_frames@AudioBuffer@webrtc@@QBEIXZ
    ?num_noise_bins@NoiseSuppressionImpl@webrtc@@SAIXZ
    ?num_output_channels@AudioProcessingImpl@webrtc@@UBEIXZ
    ?num_proc_channels@AudioProcessingImpl@webrtc@@UBEIXZ
    ?num_reverse_channels@AudioProcessingImpl@webrtc@@UBEIXZ
    ?num_samples@WavReader@webrtc@@UBEIXZ
    ?num_samples@WavWriter@webrtc@@UBEIXZ
    ?order@RealFourierOoura@webrtc@@UBEHXZ
    ?primaries@ColorSpace@webrtc@@QBE?AW4PrimaryID@12@XZ
    ?proc_sample_rate_hz@AudioProcessingImpl@webrtc@@UBEHXZ
    ?proc_split_sample_rate_hz@AudioProcessingImpl@webrtc@@UBEHXZ
    ?push_back@?$basic_string@DU?$char_traits@D@std@@V?$allocator@D@2@@std@@QAEXD@Z
    ?push_back@?$deque@MV?$allocator@M@std@@@std@@QAEX$$QAM@Z
    ?push_back@?$deque@MV?$allocator@M@std@@@std@@QAEXABM@Z
    ?range@ColorSpace@webrtc@@QBE?AW4RangeID@12@XZ
    ?render_time_ms@VideoFrame@webrtc@@QBE_JXZ
    ?reserve@?$basic_string@DU?$char_traits@D@std@@V?$allocator@D@2@@std@@QAEXI@Z
    ?reserve@?$vector@V?$unique_ptr@VPushSincResampler@webrtc@@U?$default_delete@VPushSincResampler@webrtc@@@std@@@std@@V?$allocator@V?$unique_ptr@VPushSincResampler@webrtc@@U?$default_delete@VPushSincResampler@webrtc@@@std@@@std@@@2@@std@@QAEXI@Z
    ?reset@?$unique_ptr@V?$ChannelBuffer@F@webrtc@@U?$default_delete@V?$ChannelBuffer@F@webrtc@@@std@@@std@@QAEXPAV?$ChannelBuffer@F@webrtc@@@Z
    ?reset@?$unique_ptr@V?$ChannelBuffer@M@webrtc@@U?$default_delete@V?$ChannelBuffer@M@webrtc@@@std@@@std@@QAEXPAV?$ChannelBuffer@M@webrtc@@@Z
    ?reset@?$unique_ptr@V?$SwapQueue@V?$vector@FV?$allocator@F@std@@@std@@V?$RenderQueueItemVerifier@F@webrtc@@@webrtc@@U?$default_delete@V?$SwapQueue@V?$vector@FV?$allocator@F@std@@@std@@V?$RenderQueueItemVerifier@F@webrtc@@@webrtc@@@std@@@std@@QAEXPAV?$SwapQueue@V?$vector@FV?$allocator@F@std@@@std@@V?$RenderQueueItemVerifier@F@webrtc@@@webrtc@@@Z
    ?reset@?$unique_ptr@V?$SwapQueue@V?$vector@MV?$allocator@M@std@@@std@@V?$RenderQueueItemVerifier@M@webrtc@@@webrtc@@U?$default_delete@V?$SwapQueue@V?$vector@MV?$allocator@M@std@@@std@@V?$RenderQueueItemVerifier@M@webrtc@@@webrtc@@@std@@@std@@QAEXPAV?$SwapQueue@V?$vector@MV?$allocator@M@std@@@std@@V?$RenderQueueItemVerifier@M@webrtc@@@webrtc@@@Z
    ?reset@?$unique_ptr@VAdaptiveAgc@webrtc@@U?$default_delete@VAdaptiveAgc@webrtc@@@std@@@std@@QAEXPAVAdaptiveAgc@webrtc@@@Z
    ?reset@?$unique_ptr@VAgcManagerDirect@webrtc@@U?$default_delete@VAgcManagerDirect@webrtc@@@std@@@std@@QAEXPAVAgcManagerDirect@webrtc@@@Z
    ?reset@?$unique_ptr@VApmDataDumper@webrtc@@U?$default_delete@VApmDataDumper@webrtc@@@std@@@std@@QAEXPAVApmDataDumper@webrtc@@@Z
    ?reset@?$unique_ptr@VCanceller@EchoCancellationImpl@webrtc@@U?$default_delete@VCanceller@EchoCancellationImpl@webrtc@@@std@@@std@@QAEXPAVCanceller@EchoCancellationImpl@webrtc@@@Z
    ?reset@?$unique_ptr@VCanceller@EchoControlMobileImpl@webrtc@@U?$default_delete@VCanceller@EchoControlMobileImpl@webrtc@@@std@@@std@@QAEXPAVCanceller@EchoControlMobileImpl@webrtc@@@Z
    ?reset@?$unique_ptr@VCascadedBiQuadFilter@webrtc@@U?$default_delete@VCascadedBiQuadFilter@webrtc@@@std@@@std@@QAEXPAVCascadedBiQuadFilter@webrtc@@@Z
    ?reset@?$unique_ptr@VEchoCancellationImpl@webrtc@@U?$default_delete@VEchoCancellationImpl@webrtc@@@std@@@std@@QAEXPAVEchoCancellationImpl@webrtc@@@Z
    ?reset@?$unique_ptr@VEchoControlMobileImpl@webrtc@@U?$default_delete@VEchoControlMobileImpl@webrtc@@@std@@@std@@QAEXPAVEchoControlMobileImpl@webrtc@@@Z
    ?reset@?$unique_ptr@VFrameExtender@SignalClassifier@webrtc@@U?$default_delete@VFrameExtender@SignalClassifier@webrtc@@@std@@@std@@QAEXPAVFrameExtender@SignalClassifier@webrtc@@@Z
    ?reset@?$unique_ptr@VGainController2@webrtc@@U?$default_delete@VGainController2@webrtc@@@std@@@std@@QAEXPAVGainController2@webrtc@@@Z
    ?reset@?$unique_ptr@VGainController@GainControlImpl@webrtc@@U?$default_delete@VGainController@GainControlImpl@webrtc@@@std@@@std@@QAEXPAVGainController@GainControlImpl@webrtc@@@Z
    ?reset@?$unique_ptr@VIFChannelBuffer@webrtc@@U?$default_delete@VIFChannelBuffer@webrtc@@@std@@@std@@QAEXPAVIFChannelBuffer@webrtc@@@Z
    ?reset@?$unique_ptr@VLowCutFilter@webrtc@@U?$default_delete@VLowCutFilter@webrtc@@@std@@@std@@QAEXPAVLowCutFilter@webrtc@@@Z
    ?reset@?$unique_ptr@VMovingMoments@webrtc@@U?$default_delete@VMovingMoments@webrtc@@@std@@@std@@QAEXPAVMovingMoments@webrtc@@@Z
    ?reset@?$unique_ptr@VRenderWriter@EchoCanceller3@webrtc@@U?$default_delete@VRenderWriter@EchoCanceller3@webrtc@@@std@@@std@@QAEXPAVRenderWriter@EchoCanceller3@webrtc@@@Z
    ?reset@?$unique_ptr@VReverbModel@webrtc@@U?$default_delete@VReverbModel@webrtc@@@std@@@std@@QAEXPAVReverbModel@webrtc@@@Z
    ?reset@?$unique_ptr@VReverbModelFallback@webrtc@@U?$default_delete@VReverbModelFallback@webrtc@@@std@@@std@@QAEXPAVReverbModelFallback@webrtc@@@Z
    ?reset@?$unique_ptr@VSplittingFilter@webrtc@@U?$default_delete@VSplittingFilter@webrtc@@@std@@@std@@QAEXPAVSplittingFilter@webrtc@@@Z
    ?reset@?$unique_ptr@VSuppressor@NoiseSuppressionImpl@webrtc@@U?$default_delete@VSuppressor@NoiseSuppressionImpl@webrtc@@@std@@@std@@QAEXPAVSuppressor@NoiseSuppressionImpl@webrtc@@@Z
    ?reset@?$unique_ptr@VTransientDetector@webrtc@@U?$default_delete@VTransientDetector@webrtc@@@std@@@std@@QAEXPAVTransientDetector@webrtc@@@Z
    ?reset@?$unique_ptr@VTransientSuppressor@webrtc@@U?$default_delete@VTransientSuppressor@webrtc@@@std@@@std@@QAEXPAVTransientSuppressor@webrtc@@@Z
    ?reset@?$unique_ptr@VWPDNode@webrtc@@U?$default_delete@VWPDNode@webrtc@@@std@@@std@@QAEXPAVWPDNode@webrtc@@@Z
    ?reset@?$unique_ptr@VWPDTree@webrtc@@U?$default_delete@VWPDTree@webrtc@@@std@@@std@@QAEXPAVWPDTree@webrtc@@@Z
    ?resize@?$basic_string@DU?$char_traits@D@std@@V?$allocator@D@2@@std@@QAEXID@Z
    ?rftbsub_128@OouraFft@webrtc@@ABEXPAM@Z
    ?rftbsub_128_SSE2@webrtc@@YAXPAM@Z
    ?rftfsub_128@OouraFft@webrtc@@ABEXPAM@Z
    ?rftfsub_128_SSE2@webrtc@@YAXPAM@Z
    ?routing_mode@EchoControlMobileImpl@webrtc@@QBE?AW4RoutingMode@12@XZ
    ?s_transform@rtc@@YA?AV?$basic_string@DU?$char_traits@D@std@@V?$allocator@D@2@@std@@ABV23@P6AIPADIPBDI@Z@Z
    ?sample_rate@WavReader@webrtc@@UBEHXZ
    ?sample_rate@WavWriter@webrtc@@UBEHXZ
    ?set_activity@AudioBuffer@webrtc@@QAEXW4VADActivity@AudioFrame@2@@Z
    ?set_analog_level_limits@GainControlForExperimentalAgc@webrtc@@UAEHHH@Z
    ?set_analog_level_limits@GainControlImpl@webrtc@@EAEHHH@Z
    ?set_chroma_siting_horizontal_from_uint8@ColorSpace@webrtc@@QAE_NE@Z
    ?set_chroma_siting_vertical_from_uint8@ColorSpace@webrtc@@QAE_NE@Z
    ?set_color_space@Builder@VideoFrame@webrtc@@QAEAAV123@ABV?$optional@VColorSpace@webrtc@@@absl@@@Z
    ?set_color_space@Builder@VideoFrame@webrtc@@QAEAAV123@PBVColorSpace@3@@Z
    ?set_compression_gain_db@GainControlForExperimentalAgc@webrtc@@UAEHH@Z
    ?set_compression_gain_db@GainControlImpl@webrtc@@EAEHH@Z
    ?set_data@WPDNode@webrtc@@QAEHPBMI@Z
    ?set_delay_offset_ms@AudioProcessingImpl@webrtc@@UAEXH@Z
    ?set_frame_size_ms@VoiceDetectionImpl@webrtc@@UAEHH@Z
    ?set_hdr_metadata@ColorSpace@webrtc@@QAEXPBUHdrMetadata@2@@Z
    ?set_id@Builder@VideoFrame@webrtc@@QAEAAV123@G@Z
    ?set_level@NoiseSuppressionImpl@webrtc@@UAEHW4Level@NoiseSuppression@2@@Z
    ?set_level@NoiseSuppressionProxy@webrtc@@UAEHW4Level@NoiseSuppression@2@@Z
    ?set_likelihood@VoiceDetectionImpl@webrtc@@UAEHW4Likelihood@VoiceDetection@2@@Z
    ?set_matrix_from_uint8@ColorSpace@webrtc@@QAE_NE@Z
    ?set_mode@GainControlForExperimentalAgc@webrtc@@UAEHW4Mode@GainControl@2@@Z
    ?set_mode@GainControlImpl@webrtc@@EAEHW4Mode@GainControl@2@@Z
    ?set_mode@StandaloneVad@webrtc@@QAEHH@Z
    ?set_ntp_time_ms@Builder@VideoFrame@webrtc@@QAEAAV123@_J@Z
    ?set_num_channels@AudioBuffer@webrtc@@QAEXI@Z
    ?set_output_will_be_muted@AudioProcessingImpl@webrtc@@UAEX_N@Z
    ?set_primaries_from_uint8@ColorSpace@webrtc@@QAE_NE@Z
    ?set_range_from_uint8@ColorSpace@webrtc@@QAE_NE@Z
    ?set_rotation@Builder@VideoFrame@webrtc@@QAEAAV123@W4VideoRotation@3@@Z
    ?set_routing_mode@EchoControlMobileImpl@webrtc@@QAEHW4RoutingMode@12@@Z
    ?set_stream_analog_level@GainControlForExperimentalAgc@webrtc@@UAEHH@Z
    ?set_stream_analog_level@GainControlImpl@webrtc@@EAEHH@Z
    ?set_stream_delay_ms@AudioProcessingImpl@webrtc@@UAEHH@Z
    ?set_stream_drift_samples@EchoCancellationImpl@webrtc@@QAEXH@Z
    ?set_stream_has_voice@VoiceDetectionImpl@webrtc@@UAEH_N@Z
    ?set_stream_key_pressed@AudioProcessingImpl@webrtc@@UAEX_N@Z
    ?set_suppression_level@EchoCancellationImpl@webrtc@@QAEHW4SuppressionLevel@12@@Z
    ?set_target_level_dbfs@Agc@webrtc@@UAEHH@Z
    ?set_target_level_dbfs@GainControlForExperimentalAgc@webrtc@@UAEHH@Z
    ?set_target_level_dbfs@GainControlImpl@webrtc@@EAEHH@Z
    ?set_timestamp_ms@Builder@VideoFrame@webrtc@@QAEAAV123@_J@Z
    ?set_timestamp_rtp@Builder@VideoFrame@webrtc@@QAEAAV123@I@Z
    ?set_timestamp_us@Builder@VideoFrame@webrtc@@QAEAAV123@_J@Z
    ?set_transfer_from_uint8@ColorSpace@webrtc@@QAE_NE@Z
    ?set_update_rect@Builder@VideoFrame@webrtc@@QAEAAV123@ABUUpdateRect@23@@Z
    ?set_video_frame_buffer@Builder@VideoFrame@webrtc@@QAEAAV123@ABV?$scoped_refptr@VVideoFrameBuffer@webrtc@@@rtc@@@Z
    ?size@VideoFrame@webrtc@@QBEIXZ
    ?skip_input_data@libyuv@@YAXPAUjpeg_decompress_struct@@J@Z
    ?speech_probability@NoiseSuppressionImpl@webrtc@@UBEMXZ
    ?speech_probability@NoiseSuppressionProxy@webrtc@@UBEMXZ
    ?split@rtc@@YAIABV?$basic_string@DU?$char_traits@D@std@@V?$allocator@D@2@@std@@DPAV?$vector@V?$basic_string@DU?$char_traits@D@std@@V?$allocator@D@2@@std@@V?$allocator@V?$basic_string@DU?$char_traits@D@std@@V?$allocator@D@2@@std@@@2@@3@@Z
    ?split_bands@AudioBuffer@webrtc@@QAEPBQAFI@Z
    ?split_bands_const@AudioBuffer@webrtc@@QBEPBQBFI@Z
    ?split_bands_const_f@AudioBuffer@webrtc@@QBEPBQBMI@Z
    ?split_bands_f@AudioBuffer@webrtc@@QAEPBQAMI@Z
    ?split_channels@AudioBuffer@webrtc@@QAEPBQAFW4Band@2@@Z
    ?split_channels_const@AudioBuffer@webrtc@@QBEPBQBFW4Band@2@@Z
    ?split_channels_const_f@AudioBuffer@webrtc@@QBEPBQBMW4Band@2@@Z
    ?split_channels_f@AudioBuffer@webrtc@@QAEPBQAMW4Band@2@@Z
    ?split_data@AudioBuffer@webrtc@@QAEPAV?$ChannelBuffer@F@2@XZ
    ?split_data@AudioBuffer@webrtc@@QBEPBV?$ChannelBuffer@F@2@XZ
    ?split_data_f@AudioBuffer@webrtc@@QAEPAV?$ChannelBuffer@M@2@XZ
    ?split_data_f@AudioBuffer@webrtc@@QBEPBV?$ChannelBuffer@M@2@XZ
    ?std_deviation@MeanVarianceEstimator@webrtc@@QBEMXZ
    ?strcpyn@rtc@@YAIPADIPBDI@Z
    ?stream@LogMessage@rtc@@QAEAAVStringBuilder@2@XZ
    ?stream_analog_level@GainControlForExperimentalAgc@webrtc@@UAEHXZ
    ?stream_analog_level@GainControlImpl@webrtc@@UAEHXZ
    ?stream_delay_ms@AudioProcessingImpl@webrtc@@UBEHXZ
    ?stream_drift_samples@EchoCancellationImpl@webrtc@@QBEHXZ
    ?stream_has_echo@EchoCancellationImpl@webrtc@@QBE_NXZ
    ?stream_has_voice@VoiceDetectionImpl@webrtc@@UBE_NXZ
    ?stream_is_saturated@GainControlForExperimentalAgc@webrtc@@UBE_NXZ
    ?stream_is_saturated@GainControlImpl@webrtc@@EBE_NXZ
    ?streams_@LogMessage@rtc@@0V?$list@U?$pair@PAVLogSink@rtc@@W4LoggingSeverity@2@@std@@V?$allocator@U?$pair@PAVLogSink@rtc@@W4LoggingSeverity@2@@std@@@2@@std@@A DATA
    ?string_trim@rtc@@YA?AV?$basic_string@DU?$char_traits@D@std@@V?$allocator@D@2@@std@@ABV23@@Z
    ?suppression_level@EchoCancellationImpl@webrtc@@QBE?AW4SuppressionLevel@12@XZ
    ?t@?1???$Call@$$V@?$LogStreamer@$$V@webrtc_checks_impl@rtc@@SAXPBDH0@Z@4QBW4CheckArgType@23@B DATA
    ?t@?1???$Call@U?$Val@$08PBD@webrtc_checks_impl@rtc@@@?$LogStreamer@$$V@webrtc_checks_impl@rtc@@SAXPBDH0ABU?$Val@$08PBD@23@@Z@4QBW4CheckArgType@23@B DATA
    ?t@?1???$Call@U?$Val@$08PBD@webrtc_checks_impl@rtc@@U?$Val@$00H@23@@?$LogStreamer@$$V@webrtc_checks_impl@rtc@@SAXPBDH0ABU?$Val@$08PBD@23@ABU?$Val@$00H@23@@Z@4QBW4CheckArgType@23@B DATA
    ?t@?1???$Call@U?$Val@$0N@VLogMetadata@webrtc_logging_impl@rtc@@@webrtc_logging_impl@rtc@@U?$Val@$08PBD@23@@?$LogStreamer@$$V@webrtc_logging_impl@rtc@@SAXABU?$Val@$0N@VLogMetadata@webrtc_logging_impl@rtc@@@23@ABU?$Val@$08PBD@23@@Z@4QBW4LogArgType@23@B DATA
    ?t@?1???$Call@U?$Val@$0N@VLogMetadata@webrtc_logging_impl@rtc@@@webrtc_logging_impl@rtc@@U?$Val@$08PBD@23@U423@U423@@?$LogStreamer@$$V@webrtc_logging_impl@rtc@@SAXABU?$Val@$0N@VLogMetadata@webrtc_logging_impl@rtc@@@23@ABU?$Val@$08PBD@23@11@Z@4QBW4LogArgType@23@B DATA
    ?t@?1???$Call@U?$Val@$0N@VLogMetadata@webrtc_logging_impl@rtc@@@webrtc_logging_impl@rtc@@U?$Val@$08PBD@23@U423@U423@U?$Val@$06N@23@U423@U?$Val@$00H@23@U423@U523@U423@U523@U423@U523@U423@U523@U423@U523@U423@U523@U423@U523@U423@U523@U423@@?$LogStreamer@$$V@webrtc_logging_impl@rtc@@SAXABU?$Val@$0N@VLogMetadata@webrtc_logging_impl@rtc@@@23@ABU?$Val@$08PBD@23@11ABU?$Val@$06N@23@1ABU?$Val@$00H@23@12121212121212121@Z@4QBW4LogArgType@23@B DATA
    ?t@?1???$Call@U?$Val@$0N@VLogMetadata@webrtc_logging_impl@rtc@@@webrtc_logging_impl@rtc@@U?$Val@$08PBD@23@U?$Val@$00H@23@@?$LogStreamer@$$V@webrtc_logging_impl@rtc@@SAXABU?$Val@$0N@VLogMetadata@webrtc_logging_impl@rtc@@@23@ABU?$Val@$08PBD@23@ABU?$Val@$00H@23@@Z@4QBW4LogArgType@23@B DATA
    ?t@?1???$Call@U?$Val@$0N@VLogMetadata@webrtc_logging_impl@rtc@@@webrtc_logging_impl@rtc@@U?$Val@$08PBD@23@U?$Val@$00H@23@U423@@?$LogStreamer@$$V@webrtc_logging_impl@rtc@@SAXABU?$Val@$0N@VLogMetadata@webrtc_logging_impl@rtc@@@23@ABU?$Val@$08PBD@23@ABU?$Val@$00H@23@1@Z@4QBW4LogArgType@23@B DATA
    ?t@?1???$Call@U?$Val@$0N@VLogMetadata@webrtc_logging_impl@rtc@@@webrtc_logging_impl@rtc@@U?$Val@$08PBD@23@U?$Val@$00H@23@U423@U523@@?$LogStreamer@$$V@webrtc_logging_impl@rtc@@SAXABU?$Val@$0N@VLogMetadata@webrtc_logging_impl@rtc@@@23@ABU?$Val@$08PBD@23@ABU?$Val@$00H@23@12@Z@4QBW4LogArgType@23@B DATA
    ?t@?1???$Call@U?$Val@$0N@VLogMetadata@webrtc_logging_impl@rtc@@@webrtc_logging_impl@rtc@@U?$Val@$08PBD@23@U?$Val@$00H@23@U423@U523@U423@U523@@?$LogStreamer@$$V@webrtc_logging_impl@rtc@@SAXABU?$Val@$0N@VLogMetadata@webrtc_logging_impl@rtc@@@23@ABU?$Val@$08PBD@23@ABU?$Val@$00H@23@1212@Z@4QBW4LogArgType@23@B DATA
    ?t@?1???$Call@U?$Val@$0N@VLogMetadata@webrtc_logging_impl@rtc@@@webrtc_logging_impl@rtc@@U?$Val@$08PBD@23@U?$Val@$03I@23@@?$LogStreamer@$$V@webrtc_logging_impl@rtc@@SAXABU?$Val@$0N@VLogMetadata@webrtc_logging_impl@rtc@@@23@ABU?$Val@$08PBD@23@ABU?$Val@$03I@23@@Z@4QBW4LogArgType@23@B DATA
    ?t@?1???$Call@U?$Val@$0N@VLogMetadata@webrtc_logging_impl@rtc@@@webrtc_logging_impl@rtc@@U?$Val@$08PBD@23@U?$Val@$03I@23@U423@@?$LogStreamer@$$V@webrtc_logging_impl@rtc@@SAXABU?$Val@$0N@VLogMetadata@webrtc_logging_impl@rtc@@@23@ABU?$Val@$08PBD@23@ABU?$Val@$03I@23@1@Z@4QBW4LogArgType@23@B DATA
    ?t@?1???$Call@U?$Val@$0N@VLogMetadata@webrtc_logging_impl@rtc@@@webrtc_logging_impl@rtc@@U?$Val@$08PBD@23@U?$Val@$03I@23@U423@U523@@?$LogStreamer@$$V@webrtc_logging_impl@rtc@@SAXABU?$Val@$0N@VLogMetadata@webrtc_logging_impl@rtc@@@23@ABU?$Val@$08PBD@23@ABU?$Val@$03I@23@12@Z@4QBW4LogArgType@23@B DATA
    ?t@?1???$Call@U?$Val@$0N@VLogMetadata@webrtc_logging_impl@rtc@@@webrtc_logging_impl@rtc@@U?$Val@$08PBD@23@U?$Val@$03I@23@U423@U?$Val@$00H@23@U423@@?$LogStreamer@$$V@webrtc_logging_impl@rtc@@SAXABU?$Val@$0N@VLogMetadata@webrtc_logging_impl@rtc@@@23@ABU?$Val@$08PBD@23@ABU?$Val@$03I@23@1ABU?$Val@$00H@23@1@Z@4QBW4LogArgType@23@B DATA
    ?t@?1???$Call@U?$Val@$0N@VLogMetadata@webrtc_logging_impl@rtc@@@webrtc_logging_impl@rtc@@U?$Val@$08PBD@23@U?$Val@$03I@23@U423@U?$Val@$00H@23@U423@U623@U423@@?$LogStreamer@$$V@webrtc_logging_impl@rtc@@SAXABU?$Val@$0N@VLogMetadata@webrtc_logging_impl@rtc@@@23@ABU?$Val@$08PBD@23@ABU?$Val@$03I@23@1ABU?$Val@$00H@23@131@Z@4QBW4LogArgType@23@B DATA
    ?t@?1???$Call@U?$Val@$0N@VLogMetadata@webrtc_logging_impl@rtc@@@webrtc_logging_impl@rtc@@U?$Val@$08PBD@23@U?$Val@$09PBV?$basic_string@DU?$char_traits@D@std@@V?$allocator@D@2@@std@@@23@U423@@?$LogStreamer@$$V@webrtc_logging_impl@rtc@@SAXABU?$Val@$0N@VLogMetadata@webrtc_logging_impl@rtc@@@23@ABU?$Val@$08PBD@23@ABU?$Val@$09PBV?$basic_string@DU?$char_traits@D@std@@V?$allocator@D@2@@std@@@23@1@Z@4QBW4LogArgType@23@B DATA
    ?t@?1???$CallCheckOp@U?$Val@$00H@webrtc_checks_impl@rtc@@U123@@?$LogStreamer@$$V@webrtc_checks_impl@rtc@@SAXPBDH0ABU?$Val@$00H@23@1@Z@4QBW4CheckArgType@23@B DATA
    ?t@?1???$CallCheckOp@U?$Val@$00H@webrtc_checks_impl@rtc@@U123@U123@U?$Val@$08PBD@23@U123@@?$LogStreamer@$$V@webrtc_checks_impl@rtc@@SAXPBDH0ABU?$Val@$00H@23@11ABU?$Val@$08PBD@23@1@Z@4QBW4CheckArgType@23@B DATA
    ?t@?1???$CallCheckOp@U?$Val@$00H@webrtc_checks_impl@rtc@@U123@U?$Val@$08PBD@23@U123@U423@@?$LogStreamer@$$V@webrtc_checks_impl@rtc@@SAXPBDH0ABU?$Val@$00H@23@1ABU?$Val@$08PBD@23@12@Z@4QBW4CheckArgType@23@B DATA
    ?t@?1???$CallCheckOp@U?$Val@$00H@webrtc_checks_impl@rtc@@U?$Val@$03I@23@@?$LogStreamer@$$V@webrtc_checks_impl@rtc@@SAXPBDH0ABU?$Val@$00H@23@ABU?$Val@$03I@23@@Z@4QBW4CheckArgType@23@B DATA
    ?t@?1???$CallCheckOp@U?$Val@$03I@webrtc_checks_impl@rtc@@U123@@?$LogStreamer@$$V@webrtc_checks_impl@rtc@@SAXPBDH0ABU?$Val@$03I@23@1@Z@4QBW4CheckArgType@23@B DATA
    ?t@?1???$CallCheckOp@U?$Val@$03I@webrtc_checks_impl@rtc@@U?$Val@$00H@23@@?$LogStreamer@$$V@webrtc_checks_impl@rtc@@SAXPBDH0ABU?$Val@$03I@23@ABU?$Val@$00H@23@@Z@4QBW4CheckArgType@23@B DATA
    ?t@?1???$CallCheckOp@U?$Val@$03I@webrtc_checks_impl@rtc@@U?$Val@$00H@23@U123@U?$Val@$08PBD@23@U123@@?$LogStreamer@$$V@webrtc_checks_impl@rtc@@SAXPBDH0ABU?$Val@$03I@23@ABU?$Val@$00H@23@1ABU?$Val@$08PBD@23@1@Z@4QBW4CheckArgType@23@B DATA
    ?t@?1???$CallCheckOp@U?$Val@$06N@webrtc_checks_impl@rtc@@U123@@?$LogStreamer@$$V@webrtc_checks_impl@rtc@@SAXPBDH0ABU?$Val@$06N@23@1@Z@4QBW4CheckArgType@23@B DATA
    ?t@?1???$CallCheckOp@U?$Val@$0L@PBX@webrtc_checks_impl@rtc@@U123@U?$Val@$08PBD@23@@?$LogStreamer@$$V@webrtc_checks_impl@rtc@@SAXPBDH0ABU?$Val@$0L@PBX@23@1ABU?$Val@$08PBD@23@@Z@4QBW4CheckArgType@23@B DATA
    ?target_level_dbfs@Agc@webrtc@@UBEHXZ
    ?target_level_dbfs@GainControlForExperimentalAgc@webrtc@@UBEHXZ
    ?target_level_dbfs@GainControlImpl@webrtc@@EBEHXZ
    ?term_source@libyuv@@YAXPAUjpeg_decompress_struct@@@Z
    ?thread_@LogMessage@rtc@@0_NA DATA
    ?throw_bad_optional_access@optional_internal@absl@@YAXXZ
    ?timestamp_@LogMessage@rtc@@0_NA DATA
    ?tokenize@rtc@@YAIABV?$basic_string@DU?$char_traits@D@std@@V?$allocator@D@2@@std@@DDDPAV?$vector@V?$basic_string@DU?$char_traits@D@std@@V?$allocator@D@2@@std@@V?$allocator@V?$basic_string@DU?$char_traits@D@std@@V?$allocator@D@2@@std@@@2@@3@@Z
    ?tokenize@rtc@@YAIABV?$basic_string@DU?$char_traits@D@std@@V?$allocator@D@2@@std@@DPAV?$vector@V?$basic_string@DU?$char_traits@D@std@@V?$allocator@D@2@@std@@V?$allocator@V?$basic_string@DU?$char_traits@D@std@@V?$allocator@D@2@@std@@@2@@3@@Z
    ?tokenize_append@rtc@@YAIABV?$basic_string@DU?$char_traits@D@std@@V?$allocator@D@2@@std@@DPAV?$vector@V?$basic_string@DU?$char_traits@D@std@@V?$allocator@D@2@@std@@V?$allocator@V?$basic_string@DU?$char_traits@D@std@@V?$allocator@D@2@@std@@@2@@3@@Z
    ?tokenize_first@rtc@@YA_NABV?$basic_string@DU?$char_traits@D@std@@V?$allocator@D@2@@std@@DPAV23@1@Z
    ?tokenize_with_empty_tokens@rtc@@YAIABV?$basic_string@DU?$char_traits@D@std@@V?$allocator@D@2@@std@@DPAV?$vector@V?$basic_string@DU?$char_traits@D@std@@V?$allocator@D@2@@std@@V?$allocator@V?$basic_string@DU?$char_traits@D@std@@V?$allocator@D@2@@std@@@2@@3@@Z
    ?transfer@ColorSpace@webrtc@@QBE?AW4TransferID@12@XZ
    ?transform@rtc@@YAIAAV?$basic_string@DU?$char_traits@D@std@@V?$allocator@D@2@@std@@IABV23@P6AIPADIPBDI@Z@Z
    ?type@I010BufferInterface@webrtc@@UBE?AW4Type@VideoFrameBuffer@2@XZ
    ?type@I420ABufferInterface@webrtc@@UBE?AW4Type@VideoFrameBuffer@2@XZ
    ?type@I420BufferInterface@webrtc@@UBE?AW4Type@VideoFrameBuffer@2@XZ
    ?type@I444BufferInterface@webrtc@@UBE?AW4Type@VideoFrameBuffer@2@XZ
    ?url_decode@rtc@@YAIPADIPBDI@Z
    ?video_frame_buffer@VideoFrame@webrtc@@QBE?AV?$scoped_refptr@VVideoFrameBuffer@webrtc@@@rtc@@XZ
    ?voice_detection@AudioProcessingImpl@webrtc@@UBEPAVVoiceDetection@2@XZ
    ?voice_probability@AdaptiveModeLevelEstimatorAgc@webrtc@@UBEMXZ
    ?voice_probability@Agc@webrtc@@UBEMXZ
    ?voice_probability@AgcManagerDirect@webrtc@@QAEMXZ
    ?was_stream_delay_set@AudioProcessingImpl@webrtc@@UBE_NXZ
    ?what@bad_optional_access@absl@@UBEPBDXZ
    ?width@I420Buffer@webrtc@@UBEHXZ
    ?width@VideoFrame@webrtc@@QBEHXZ
    ABGRToAR30 @1
    ABGRToAR30Row_C @2
    ABGRToARGB @3
    ABGRToI420 @4
    ABGRToUVRow_Any_SSSE3 @5
    ABGRToUVRow_C @6
    ABGRToYRow_Any_SSSE3 @7
    ABGRToYRow_C @8
    AR30ToAB30 @9
    AR30ToAB30Row_C @10
    AR30ToABGR @11
    AR30ToABGRRow_C @12
    AR30ToARGB @13
    AR30ToARGBRow_C @14
    ARGB1555ToARGB @15
    ARGB1555ToARGBRow_Any_AVX2 @16
    ARGB1555ToARGBRow_Any_SSE2 @17
    ARGB1555ToARGBRow_C @18
    ARGB1555ToI420 @19
    ARGB1555ToUVRow_C @20
    ARGB1555ToYRow_C @21
    ARGB4444ToARGB @22
    ARGB4444ToARGBRow_Any_AVX2 @23
    ARGB4444ToARGBRow_Any_SSE2 @24
    ARGB4444ToARGBRow_C @25
    ARGB4444ToI420 @26
    ARGB4444ToUVRow_C @27
    ARGB4444ToYRow_C @28
    ARGBAdd @29
    ARGBAddRow_Any_AVX2 @30
    ARGBAddRow_Any_SSE2 @31
    ARGBAddRow_C @32
    ARGBAffineRow_C @33
    ARGBAttenuate @34
    ARGBAttenuateRow_Any_AVX2 @35
    ARGBAttenuateRow_Any_SSSE3 @36
    ARGBAttenuateRow_C @37
    ARGBBlend @38
    ARGBBlendRow_C @39
    ARGBBlur @40
    ARGBColorMatrix @41
    ARGBColorMatrixRow_C @42
    ARGBColorTable @43
    ARGBColorTableRow_C @44
    ARGBComputeCumulativeSum @45
    ARGBCopy @46
    ARGBCopyAlpha @47
    ARGBCopyAlphaRow_Any_AVX2 @48
    ARGBCopyAlphaRow_Any_SSE2 @49
    ARGBCopyAlphaRow_C @50
    ARGBCopyYToAlpha @51
    ARGBCopyYToAlphaRow_Any_AVX2 @52
    ARGBCopyYToAlphaRow_Any_SSE2 @53
    ARGBCopyYToAlphaRow_C @54
    ARGBDetect @55
    ARGBExtractAlpha @56
    ARGBExtractAlphaRow_Any_AVX2 @57
    ARGBExtractAlphaRow_Any_SSE2 @58
    ARGBExtractAlphaRow_C @59
    ARGBGray @60
    ARGBGrayRow_C @61
    ARGBGrayTo @62
    ARGBInterpolate @63
    ARGBLumaColorTable @64
    ARGBLumaColorTableRow_C @65
    ARGBMirror @66
    ARGBMirrorRow_Any_AVX2 @67
    ARGBMirrorRow_Any_SSE2 @68
    ARGBMirrorRow_C @69
    ARGBMultiply @70
    ARGBMultiplyRow_Any_AVX2 @71
    ARGBMultiplyRow_Any_SSE2 @72
    ARGBMultiplyRow_C @73
    ARGBPolynomial @74
    ARGBPolynomialRow_C @75
    ARGBQuantize @76
    ARGBQuantizeRow_C @77
    ARGBRect @78
    ARGBRotate @79
    ARGBRotate180 @80
    ARGBRotate270 @81
    ARGBRotate90 @82
    ARGBScale @83
    ARGBScaleClip @84
    ARGBSepia @85
    ARGBSepiaRow_C @86
    ARGBSetRow_C @87
    ARGBShade @88
    ARGBShadeRow_C @89
    ARGBShuffle @90
    ARGBShuffleRow_Any_AVX2 @91
    ARGBShuffleRow_Any_SSSE3 @92
    ARGBShuffleRow_C @93
    ARGBSobel @94
    ARGBSobelToPlane @95
    ARGBSobelXY @96
    ARGBSubtract @97
    ARGBSubtractRow_Any_AVX2 @98
    ARGBSubtractRow_Any_SSE2 @99
    ARGBSubtractRow_C @100
    ARGBToABGR @101
    ARGBToAR30 @102
    ARGBToAR30Row_C @103
    ARGBToARGB1555 @104
    ARGBToARGB1555Row_Any_AVX2 @105
    ARGBToARGB1555Row_Any_SSE2 @106
    ARGBToARGB1555Row_C @107
    ARGBToARGB4444 @108
    ARGBToARGB4444Row_Any_AVX2 @109
    ARGBToARGB4444Row_Any_SSE2 @110
    ARGBToARGB4444Row_C @111
    ARGBToBGRA @112
    ARGBToI400 @113
    ARGBToI420 @114
    ARGBToI422 @115
    ARGBToI444 @116
    ARGBToJ400 @117
    ARGBToJ420 @118
    ARGBToJ422 @119
    ARGBToNV12 @120
    ARGBToNV21 @121
    ARGBToRAW @122
    ARGBToRAWRow_Any_SSSE3 @123
    ARGBToRAWRow_C @124
    ARGBToRGB24 @125
    ARGBToRGB24Row_Any_SSSE3 @126
    ARGBToRGB24Row_C @127
    ARGBToRGB565 @128
    ARGBToRGB565Dither @129
    ARGBToRGB565DitherRow_Any_AVX2 @130
    ARGBToRGB565DitherRow_Any_SSE2 @131
    ARGBToRGB565DitherRow_C @132
    ARGBToRGB565Row_Any_AVX2 @133
    ARGBToRGB565Row_Any_SSE2 @134
    ARGBToRGB565Row_C @135
    ARGBToRGBA @136
    ARGBToUV444Row_Any_SSSE3 @137
    ARGBToUV444Row_C @138
    ARGBToUVJRow_Any_AVX2 @139
    ARGBToUVJRow_Any_SSSE3 @140
    ARGBToUVJRow_C @141
    ARGBToUVRow_Any_AVX2 @142
    ARGBToUVRow_Any_SSSE3 @143
    ARGBToUVRow_C @144
    ARGBToUYVY @145
    ARGBToYJRow_Any_AVX2 @146
    ARGBToYJRow_Any_SSSE3 @147
    ARGBToYJRow_C @148
    ARGBToYRow_Any_AVX2 @149
    ARGBToYRow_Any_SSSE3 @150
    ARGBToYRow_C @151
    ARGBToYUY2 @152
    ARGBUnattenuate @153
    ARGBUnattenuateRow_Any_AVX2 @154
    ARGBUnattenuateRow_Any_SSE2 @155
    ARGBUnattenuateRow_C @156
    Android420ToABGR @157
    Android420ToARGB @158
    Android420ToARGBMatrix @159
    Android420ToI420 @160
    ArmCpuCaps @161
    BGRAToARGB @162
    BGRAToI420 @163
    BGRAToUVRow_Any_SSSE3 @164
    BGRAToUVRow_C @165
    BGRAToYRow_Any_SSSE3 @166
    BGRAToYRow_C @167
    BlendPlane @168
    BlendPlaneRow_Any_AVX2 @169
    BlendPlaneRow_Any_SSSE3 @170
    BlendPlaneRow_C @171
    ByteToFloat @172
    ByteToFloatRow_C @173
    CalcFramePsnr @174
    CalcFrameSsim @175
    CanonicalFourCC @176
    ComputeCumulativeSumRow_C @177
    ComputeHammingDistance @178
    ComputeSumSquareError @179
    ComputeSumSquareErrorPlane @180
    Convert16To8Plane @181
    Convert16To8Row_C @182
    Convert8To16Plane @183
    Convert8To16Row_C @184
    ConvertFromI420 @185
    ConvertToARGB @186
    ConvertToI420 @187
    CopyPlane @188
    CopyPlane_16 @189
    CopyRow_16_C @190
    CopyRow_Any_AVX @191
    CopyRow_Any_SSE2 @192
    CopyRow_C @193
    CpuId @194
    CumulativeSumToAverageRow_C @195
    FixedDiv1_C @196
    FixedDiv_C @197
    GaussCol_C @198
    GaussRow_C @199
    GetARGBBlend @200
    GetXCR0 @201
    H010ToAB30 @202
    H010ToABGR @203
    H010ToAR30 @204
    H010ToARGB @205
    H420ToABGR @206
    H420ToAR30 @207
    H420ToARGB @208
    H420ToRAW @209
    H420ToRGB24 @210
    H420ToRGB565 @211
    H422ToABGR @212
    H422ToARGB @213
    HalfFloatPlane @214
    HalfFloatRow_Any_AVX2 @215
    HalfFloatRow_Any_SSE2 @216
    HalfFloatRow_C @217
    HammingDistance_C @218
    HashDjb2 @219
    HashDjb2_C @220
    I010Copy @221
    I010ToAB30 @222
    I010ToABGR @223
    I010ToAR30 @224
    I010ToARGB @225
    I010ToI420 @226
    I210ToAR30Row_C @227
    I210ToARGBRow_C @228
    I2AudioProcess @229
    I2AudioProcessClose @230
    I2CreateAudioProcess @231
    I2CreateVideoDenoise2 @232
    I2VideoDenoise2 @233
    I2VideoDenoiseClose2 @234
    I400Copy @235
    I400Mirror @236
    I400ToARGB @237
    I400ToARGBRow_Any_AVX2 @238
    I400ToARGBRow_Any_SSE2 @239
    I400ToARGBRow_C @240
    I400ToI400 @241
    I400ToI420 @242
    I400ToNV21 @243
    I420AlphaToABGR @244
    I420AlphaToARGB @245
    I420Blend @246
    I420Copy @247
    I420Interpolate @248
    I420Mirror @249
    I420Psnr @250
    I420Rect @251
    I420Rotate @252
    I420Scale @253
    I420Scale_16 @254
    I420Ssim @255
    I420ToABGR @256
    I420ToAR30 @257
    I420ToARGB @258
    I420ToARGB1555 @259
    I420ToARGB4444 @260
    I420ToBGRA @261
    I420ToI010 @262
    I420ToI400 @263
    I420ToI422 @264
    I420ToI444 @265
    I420ToNV12 @266
    I420ToNV21 @267
    I420ToRAW @268
    I420ToRGB24 @269
    I420ToRGB565 @270
    I420ToRGB565Dither @271
    I420ToRGB565Matrix @272
    I420ToRGBA @273
    I420ToUYVY @274
    I420ToYUY2 @275
    I422AlphaToARGBRow_Any_AVX2 @276
    I422AlphaToARGBRow_Any_SSSE3 @277
    I422AlphaToARGBRow_C @278
    I422Copy @279
    I422ToABGR @280
    I422ToAR30Row_C @281
    I422ToARGB @282
    I422ToARGB1555Row_AVX2 @283
    I422ToARGB1555Row_Any_AVX2 @284
    I422ToARGB1555Row_Any_SSSE3 @285
    I422ToARGB1555Row_C @286
    I422ToARGB1555Row_SSSE3 @287
    I422ToARGB4444Row_AVX2 @288
    I422ToARGB4444Row_Any_AVX2 @289
    I422ToARGB4444Row_Any_SSSE3 @290
    I422ToARGB4444Row_C @291
    I422ToARGB4444Row_SSSE3 @292
    I422ToARGBRow_Any_AVX2 @293
    I422ToARGBRow_Any_SSSE3 @294
    I422ToARGBRow_C @295
    I422ToBGRA @296
    I422ToI420 @297
    I422ToNV21 @298
    I422ToRGB24Row_AVX2 @299
    I422ToRGB24Row_Any_AVX2 @300
    I422ToRGB24Row_Any_SSSE3 @301
    I422ToRGB24Row_C @302
    I422ToRGB565 @303
    I422ToRGB565Row_AVX2 @304
    I422ToRGB565Row_Any_AVX2 @305
    I422ToRGB565Row_Any_SSSE3 @306
    I422ToRGB565Row_C @307
    I422ToRGBA @308
    I422ToRGBARow_Any_AVX2 @309
    I422ToRGBARow_Any_SSSE3 @310
    I422ToRGBARow_C @311
    I422ToUYVY @312
    I422ToUYVYRow_Any_SSE2 @313
    I422ToUYVYRow_C @314
    I422ToYUY2 @315
    I422ToYUY2Row_Any_SSE2 @316
    I422ToYUY2Row_C @317
    I444Copy @318
    I444ToABGR @319
    I444ToARGB @320
    I444ToARGBRow_Any_AVX2 @321
    I444ToARGBRow_Any_SSSE3 @322
    I444ToARGBRow_C @323
    I444ToI420 @324
    I444ToNV21 @325
    IAudioProcess @326
    IAudioProcessClose @327
    ICreateAudioProcess @328
    ICreateVideoDenoise @329
    IVideoDenoise @330
    IVideoDenoiseClose @331
    InitCpuFlags @332
    InterpolatePlane @333
    InterpolateRow_16_C @334
    InterpolateRow_Any_AVX2 @335
    InterpolateRow_Any_SSSE3 @336
    InterpolateRow_C @337
    J400ToARGB @338
    J400ToARGBRow_Any_AVX2 @339
    J400ToARGBRow_Any_SSE2 @340
    J400ToARGBRow_C @341
    J420ToABGR @342
    J420ToARGB @343
    J420ToRGB565 @344
    J422ToABGR @345
    J422ToARGB @346
    J444ToARGB @347
    M420ToARGB @348
    M420ToI420 @349
    MJPGSize @350
    MJPGToARGB @351
    MJPGToI420 @352
    MJPGToNV21 @353
    MaskCpuFlags @354
    MergeRGBPlane @355
    MergeRGBRow_C @356
    MergeUVPlane @357
    MergeUVRow_16_C @358
    MergeUVRow_Any_AVX2 @359
    MergeUVRow_Any_SSE2 @360
    MergeUVRow_C @361
    MipsCpuCaps @362
    MirrorPlane @363
    MirrorRow_Any_AVX2 @364
    MirrorRow_Any_SSSE3 @365
    MirrorRow_C @366
    MirrorUVRow_C @367
    MultiplyRow_16_C @368
    NV12ToABGR @369
    NV12ToARGB @370
    NV12ToARGBRow_Any_AVX2 @371
    NV12ToARGBRow_Any_SSSE3 @372
    NV12ToARGBRow_C @373
    NV12ToI420 @374
    NV12ToI420Rotate @375
    NV12ToRAW @376
    NV12ToRGB24 @377
    NV12ToRGB24Row_AVX2 @378
    NV12ToRGB24Row_Any_AVX2 @379
    NV12ToRGB24Row_Any_SSSE3 @380
    NV12ToRGB24Row_C @381
    NV12ToRGB24Row_SSSE3 @382
    NV12ToRGB565 @383
    NV12ToRGB565Row_AVX2 @384
    NV12ToRGB565Row_Any_AVX2 @385
    NV12ToRGB565Row_Any_SSSE3 @386
    NV12ToRGB565Row_C @387
    NV12ToRGB565Row_SSSE3 @388
    NV21ToABGR @389
    NV21ToARGB @390
    NV21ToARGBRow_Any_AVX2 @391
    NV21ToARGBRow_Any_SSSE3 @392
    NV21ToARGBRow_C @393
    NV21ToI420 @394
    NV21ToRAW @395
    NV21ToRGB24 @396
    NV21ToRGB24Row_AVX2 @397
    NV21ToRGB24Row_Any_AVX2 @398
    NV21ToRGB24Row_Any_SSSE3 @399
    NV21ToRGB24Row_C @400
    NV21ToRGB24Row_SSSE3 @401
    RAWToARGB @402
    RAWToARGBRow_Any_SSSE3 @403
    RAWToARGBRow_C @404
    RAWToI420 @405
    RAWToRGB24 @406
    RAWToRGB24Row_Any_SSSE3 @407
    RAWToRGB24Row_C @408
    RAWToUVRow_C @409
    RAWToYRow_C @410
    RGB24ToARGB @411
    RGB24ToARGBRow_Any_SSSE3 @412
    RGB24ToARGBRow_C @413
    RGB24ToI420 @414
    RGB24ToUVRow_C @415
    RGB24ToYRow_C @416
    RGB565ToARGB @417
    RGB565ToARGBRow_Any_AVX2 @418
    RGB565ToARGBRow_Any_SSE2 @419
    RGB565ToARGBRow_C @420
    RGB565ToI420 @421
    RGB565ToUVRow_C @422
    RGB565ToYRow_C @423
    RGBAToARGB @424
    RGBAToI420 @425
    RGBAToUVRow_Any_SSSE3 @426
    RGBAToUVRow_C @427
    RGBAToYRow_Any_SSSE3 @428
    RGBAToYRow_C @429
    RGBColorMatrix @430
    RGBColorTable @431
    RGBColorTableRow_C @432
    RotatePlane @433
    RotatePlane180 @434
    RotatePlane270 @435
    RotatePlane90 @436
    RotateUV180 @437
    RotateUV270 @438
    RotateUV90 @439
    Scale @440
    ScaleARGBCols64_C @441
    ScaleARGBColsUp2_C @442
    ScaleARGBCols_C @443
    ScaleARGBFilterCols64_C @444
    ScaleARGBFilterCols_C @445
    ScaleARGBRowDown2Box_Any_SSE2 @446
    ScaleARGBRowDown2Box_C @447
    ScaleARGBRowDown2Linear_Any_SSE2 @448
    ScaleARGBRowDown2Linear_C @449
    ScaleARGBRowDown2_Any_SSE2 @450
    ScaleARGBRowDown2_C @451
    ScaleARGBRowDownEvenBox_Any_SSE2 @452
    ScaleARGBRowDownEvenBox_C @453
    ScaleARGBRowDownEven_Any_SSE2 @454
    ScaleARGBRowDownEven_C @455
    ScaleAddRow_16_C @456
    ScaleAddRow_Any_AVX2 @457
    ScaleAddRow_Any_SSE2 @458
    ScaleAddRow_C @459
    ScaleColsUp2_16_C @460
    ScaleColsUp2_C @461
    ScaleCols_16_C @462
    ScaleCols_C @463
    ScaleFilterCols64_16_C @464
    ScaleFilterCols64_C @465
    ScaleFilterCols_16_C @466
    ScaleFilterCols_C @467
    ScaleFilterReduce @468
    ScaleMaxSamples_C @469
    ScalePlane @470
    ScalePlaneBilinearDown @471
    ScalePlaneBilinearDown_16 @472
    ScalePlaneBilinearUp @473
    ScalePlaneBilinearUp_16 @474
    ScalePlaneVertical @475
    ScalePlaneVertical_16 @476
    ScalePlane_16 @477
    ScaleRowDown2Box_16_C @478
    ScaleRowDown2Box_Any_AVX2 @479
    ScaleRowDown2Box_Any_SSSE3 @480
    ScaleRowDown2Box_C @481
    ScaleRowDown2Box_Odd_AVX2 @482
    ScaleRowDown2Box_Odd_C @483
    ScaleRowDown2Box_Odd_SSSE3 @484
    ScaleRowDown2Linear_16_C @485
    ScaleRowDown2Linear_Any_AVX2 @486
    ScaleRowDown2Linear_Any_SSSE3 @487
    ScaleRowDown2Linear_C @488
    ScaleRowDown2_16_C @489
    ScaleRowDown2_Any_AVX2 @490
    ScaleRowDown2_Any_SSSE3 @491
    ScaleRowDown2_C @492
    ScaleRowDown34_0_Box_16_C @493
    ScaleRowDown34_0_Box_Any_SSSE3 @494
    ScaleRowDown34_0_Box_C @495
    ScaleRowDown34_16_C @496
    ScaleRowDown34_1_Box_16_C @497
    ScaleRowDown34_1_Box_Any_SSSE3 @498
    ScaleRowDown34_1_Box_C @499
    ScaleRowDown34_Any_SSSE3 @500
    ScaleRowDown34_C @501
    ScaleRowDown38_16_C @502
    ScaleRowDown38_2_Box_16_C @503
    ScaleRowDown38_2_Box_Any_SSSE3 @504
    ScaleRowDown38_2_Box_C @505
    ScaleRowDown38_3_Box_16_C @506
    ScaleRowDown38_3_Box_Any_SSSE3 @507
    ScaleRowDown38_3_Box_C @508
    ScaleRowDown38_Any_SSSE3 @509
    ScaleRowDown38_C @510
    ScaleRowDown4Box_16_C @511
    ScaleRowDown4Box_Any_AVX2 @512
    ScaleRowDown4Box_Any_SSSE3 @513
    ScaleRowDown4Box_C @514
    ScaleRowDown4_16_C @515
    ScaleRowDown4_Any_AVX2 @516
    ScaleRowDown4_Any_SSSE3 @517
    ScaleRowDown4_C @518
    ScaleRowUp2_16_C @519
    ScaleSamples_C @520
    ScaleSlope @521
    ScaleSumSamples_C @522
    SetPlane @523
    SetRow_Any_X86 @524
    SetRow_C @525
    SobelRow_Any_SSE2 @526
    SobelRow_C @527
    SobelToPlaneRow_Any_SSE2 @528
    SobelToPlaneRow_C @529
    SobelXRow_C @530
    SobelXYRow_Any_SSE2 @531
    SobelXYRow_C @532
    SobelYRow_C @533
    SplitRGBPlane @534
    SplitRGBRow_C @535
    SplitUVPlane @536
    SplitUVRow_Any_AVX2 @537
    SplitUVRow_Any_SSE2 @538
    SplitUVRow_C @539
    SumSquareErrorToPsnr @540
    SumSquareError_C @541
    TransposePlane @542
    TransposeUV @543
    TransposeUVWx8_Any_SSE2 @544
    TransposeUVWx8_C @545
    TransposeUVWxH_C @546
    TransposeWx8_Any_SSSE3 @547
    TransposeWx8_C @548
    TransposeWxH_C @549
    UYVYToARGB @550
    UYVYToARGBRow_Any_AVX2 @551
    UYVYToARGBRow_Any_SSSE3 @552
    UYVYToARGBRow_C @553
    UYVYToI420 @554
    UYVYToI422 @555
    UYVYToNV12 @556
    UYVYToUV422Row_Any_AVX2 @557
    UYVYToUV422Row_Any_SSE2 @558
    UYVYToUV422Row_C @559
    UYVYToUVRow_Any_AVX2 @560
    UYVYToUVRow_Any_SSE2 @561
    UYVYToUVRow_C @562
    UYVYToYRow_Any_AVX2 @563
    UYVYToYRow_Any_SSE2 @564
    UYVYToYRow_C @565
    ValidateJpeg @566
    WebRtcAecm_BufferFarend @567
    WebRtcAecm_Create @568
    WebRtcAecm_Free @569
    WebRtcAecm_GetBufferFarendError @570
    WebRtcAecm_GetEchoPath @571
    WebRtcAecm_Init @572
    WebRtcAecm_InitEchoPath @573
    WebRtcAecm_Process @574
    WebRtcAecm_echo_path_size_bytes @575
    WebRtcAecm_set_config @576
    WebRtcAgc_AddFarend @577
    WebRtcAgc_AddFarendToDigital @578
    WebRtcAgc_AddMic @579
    WebRtcAgc_CalculateGainTable @580
    WebRtcAgc_Create @581
    WebRtcAgc_ExpCurve @582
    WebRtcAgc_Free @583
    WebRtcAgc_GetAddFarendError @584
    WebRtcAgc_Init @585
    WebRtcAgc_InitDigital @586
    WebRtcAgc_InitVad @587
    WebRtcAgc_Process @588
    WebRtcAgc_ProcessAnalog @589
    WebRtcAgc_ProcessDigital @590
    WebRtcAgc_ProcessVad @591
    WebRtcAgc_SaturationCtrl @592
    WebRtcAgc_SpeakerInactiveCtrl @593
    WebRtcAgc_UpdateAgcThresholds @594
    WebRtcAgc_VirtualMic @595
    WebRtcAgc_ZeroCtrl @596
    WebRtcAgc_get_config @597
    WebRtcAgc_set_config @598
    WebRtcIsacBw_GetBandwidthInfo @599
    WebRtcIsacBw_SetBandwidthInfo @600
    WebRtcIsac_AddLarMean @601
    WebRtcIsac_AddMeanToLinearDomain @602
    WebRtcIsac_AllPassFilter2Float @603
    WebRtcIsac_Assign @604
    WebRtcIsac_AssignSize @605
    WebRtcIsac_AutoCorr @606
    WebRtcIsac_Control @607
    WebRtcIsac_ControlBwe @608
    WebRtcIsac_CorrelateInterVec @609
    WebRtcIsac_CorrelateIntraVec @610
    WebRtcIsac_CorrelateLpcGain @611
    WebRtcIsac_Create @612
    WebRtcIsac_DecHistBisectMulti @613
    WebRtcIsac_DecHistOneStepMulti @614
    WebRtcIsac_DecLogisticMulti2 @615
    WebRtcIsac_DecSampRate @616
    WebRtcIsac_Decode @617
    WebRtcIsac_DecodeBandwidth @618
    WebRtcIsac_DecodeFrameLen @619
    WebRtcIsac_DecodeGain2 @620
    WebRtcIsac_DecodeInterpolLpcUb @621
    WebRtcIsac_DecodeJitterInfo @622
    WebRtcIsac_DecodeLb @623
    WebRtcIsac_DecodeLpc @624
    WebRtcIsac_DecodeLpcCoef @625
    WebRtcIsac_DecodeLpcCoefUB @626
    WebRtcIsac_DecodeLpcGainUb @627
    WebRtcIsac_DecodePitchGain @628
    WebRtcIsac_DecodePitchLag @629
    WebRtcIsac_DecodePlc @630
    WebRtcIsac_DecodeRc @631
    WebRtcIsac_DecodeRcu @632
    WebRtcIsac_DecodeSendBW @633
    WebRtcIsac_DecodeSpec @634
    WebRtcIsac_DecodeUb12 @635
    WebRtcIsac_DecodeUb16 @636
    WebRtcIsac_DecoderInit @637
    WebRtcIsac_DecorrelateInterVec @638
    WebRtcIsac_DecorrelateIntraVec @639
    WebRtcIsac_DecorrelateLPGain @640
    WebRtcIsac_DequantizeLpcGain @641
    WebRtcIsac_DequantizeLpcParam @642
    WebRtcIsac_Dir2Lat @643
    WebRtcIsac_EncHistMulti @644
    WebRtcIsac_EncLogisticMulti2 @645
    WebRtcIsac_EncSampRate @646
    WebRtcIsac_EncTerminate @647
    WebRtcIsac_Encode @648
    WebRtcIsac_EncodeBandwidth @649
    WebRtcIsac_EncodeFrameLen @650
    WebRtcIsac_EncodeGain2 @651
    WebRtcIsac_EncodeJitterInfo @652
    WebRtcIsac_EncodeLar @653
    WebRtcIsac_EncodeLb @654
    WebRtcIsac_EncodeLpcGainLb @655
    WebRtcIsac_EncodeLpcGainUb @656
    WebRtcIsac_EncodeLpcLb @657
    WebRtcIsac_EncodeLpcUB @658
    WebRtcIsac_EncodePitchGain @659
    WebRtcIsac_EncodePitchLag @660
    WebRtcIsac_EncodeRc @661
    WebRtcIsac_EncodeReceiveBw @662
    WebRtcIsac_EncodeSpec @663
    WebRtcIsac_EncodeStoredDataLb @664
    WebRtcIsac_EncodeStoredDataUb @665
    WebRtcIsac_EncodeUb12 @666
    WebRtcIsac_EncodeUb16 @667
    WebRtcIsac_EncoderInit @668
    WebRtcIsac_EstimateBandwidth @669
    WebRtcIsac_FilterAndCombineFloat @670
    WebRtcIsac_Free @671
    WebRtcIsac_GetBandwidthInfo @672
    WebRtcIsac_GetCrc @673
    WebRtcIsac_GetDownLinkBwIndex @674
    WebRtcIsac_GetDownlinkBandwidth @675
    WebRtcIsac_GetDownlinkBwJitIndexImpl @676
    WebRtcIsac_GetDownlinkMaxDelay @677
    WebRtcIsac_GetErrorCode @678
    WebRtcIsac_GetLpcCoefLb @679
    WebRtcIsac_GetLpcCoefUb @680
    WebRtcIsac_GetLpcGain @681
    WebRtcIsac_GetMinBytes @682
    WebRtcIsac_GetNewBitStream @683
    WebRtcIsac_GetNewFrameLen @684
    WebRtcIsac_GetNewFrameLength @685
    WebRtcIsac_GetRedPayload @686
    WebRtcIsac_GetRedPayloadUb @687
    WebRtcIsac_GetSnr @688
    WebRtcIsac_GetUplinkBandwidth @689
    WebRtcIsac_GetUplinkBw @690
    WebRtcIsac_GetUplinkMaxDelay @691
    WebRtcIsac_InitBandwidthEstimator @692
    WebRtcIsac_InitMasking @693
    WebRtcIsac_InitPitchAnalysis @694
    WebRtcIsac_InitPitchFilter @695
    WebRtcIsac_InitPostFilterbank @696
    WebRtcIsac_InitPreFilterbank @697
    WebRtcIsac_InitRateModel @698
    WebRtcIsac_InitTransform @699
    WebRtcIsac_Lar2Poly @700
    WebRtcIsac_Lar2PolyInterpolUB @701
    WebRtcIsac_Lar2Rc @702
    WebRtcIsac_LevDurb @703
    WebRtcIsac_NormLatticeFilterAr @704
    WebRtcIsac_NormLatticeFilterMa @705
    WebRtcIsac_PitchAnalysis @706
    WebRtcIsac_PitchfilterPost @707
    WebRtcIsac_PitchfilterPre @708
    WebRtcIsac_PitchfilterPre_gains @709
    WebRtcIsac_PitchfilterPre_la @710
    WebRtcIsac_Poly2Lar @711
    WebRtcIsac_Poly2LarUB @712
    WebRtcIsac_Poly2Rc @713
    WebRtcIsac_QuantizeLpcGain @714
    WebRtcIsac_QuantizeUncorrLar @715
    WebRtcIsac_RateAllocation @716
    WebRtcIsac_Rc2Lar @717
    WebRtcIsac_Rc2Poly @718
    WebRtcIsac_ReadBwIndex @719
    WebRtcIsac_ReadFrameLen @720
    WebRtcIsac_RemoveLarMean @721
    WebRtcIsac_ResetBitstream @722
    WebRtcIsac_SetBandwidthInfo @723
    WebRtcIsac_SetDecSampRate @724
    WebRtcIsac_SetEncSampRate @725
    WebRtcIsac_SetEncSampRateInDecoder @726
    WebRtcIsac_SetInitialBweBottleneck @727
    WebRtcIsac_SetMaxPayloadSize @728
    WebRtcIsac_SetMaxRate @729
    WebRtcIsac_Spec2time @730
    WebRtcIsac_SplitAndFilterFloat @731
    WebRtcIsac_StoreLpcGainUb @732
    WebRtcIsac_Time2Spec @733
    WebRtcIsac_ToLogDomainRemoveMean @734
    WebRtcIsac_TranscodeLPCCoef @735
    WebRtcIsac_UpdateBandwidthEstimator @736
    WebRtcIsac_UpdateBwEstimate @737
    WebRtcIsac_UpdateRateModel @738
    WebRtcIsac_UpdateUplinkBw @739
    WebRtcIsac_UpdateUplinkBwImpl @740
    WebRtcIsac_UpdateUplinkJitter @741
    WebRtcIsac_WeightingFilter @742
    WebRtcIsac_kCos @743 DATA
    WebRtcIsac_kFrameLengthCdf @744 DATA
    WebRtcIsac_kFrameLengthCdf_ptr @745 DATA
    WebRtcIsac_kFrameLengthInitIndex @746 DATA
    WebRtcIsac_kIintraVecDecorrMatUb16 @747 DATA
    WebRtcIsac_kIndexLowerLimitGain @748 DATA
    WebRtcIsac_kIndexMultsGain @749 DATA
    WebRtcIsac_kIndexUpperLimitGain @750 DATA
    WebRtcIsac_kInterVecDecorrMatUb12 @751 DATA
    WebRtcIsac_kInterVecDecorrMatUb16 @752 DATA
    WebRtcIsac_kIntraVecDecorrMatUb12 @753 DATA
    WebRtcIsac_kKltT1Gain @754 DATA
    WebRtcIsac_kKltT1Shape @755 DATA
    WebRtcIsac_kKltT2Gain @756 DATA
    WebRtcIsac_kKltT2Shape @757 DATA
    WebRtcIsac_kLeftRecPointLpcGain @758 DATA
    WebRtcIsac_kLowerApFactorsFloat @759 DATA
    WebRtcIsac_kLpcGainCdfMat @760 DATA
    WebRtcIsac_kLpcGainCdfVec0 @761 DATA
    WebRtcIsac_kLpcGainCdfVec1 @762 DATA
    WebRtcIsac_kLpcGainCdfVec2 @763 DATA
    WebRtcIsac_kLpcGainCdfVec3 @764 DATA
    WebRtcIsac_kLpcGainCdfVec4 @765 DATA
    WebRtcIsac_kLpcGainCdfVec5 @766 DATA
    WebRtcIsac_kLpcGainDecorrMat @767 DATA
    WebRtcIsac_kLpcGainEntropySearch @768 DATA
    WebRtcIsac_kLpcMeansGain @769 DATA
    WebRtcIsac_kLpcMeansShape @770 DATA
    WebRtcIsac_kLpcShapeCdfMatUb12 @771 DATA
    WebRtcIsac_kLpcShapeCdfMatUb16 @772 DATA
    WebRtcIsac_kLpcShapeCdfVec01Ub16 @773 DATA
    WebRtcIsac_kLpcShapeCdfVec01Ub160 @774 DATA
    WebRtcIsac_kLpcShapeCdfVec01Ub161 @775 DATA
    WebRtcIsac_kLpcShapeCdfVec01Ub162 @776 DATA
    WebRtcIsac_kLpcShapeCdfVec01Ub163 @777 DATA
    WebRtcIsac_kLpcShapeCdfVec01Ub164 @778 DATA
    WebRtcIsac_kLpcShapeCdfVec01Ub165 @779 DATA
    WebRtcIsac_kLpcShapeCdfVec01Ub166 @780 DATA
    WebRtcIsac_kLpcShapeCdfVec0Ub12 @781 DATA
    WebRtcIsac_kLpcShapeCdfVec1Ub12 @782 DATA
    WebRtcIsac_kLpcShapeCdfVec1Ub16 @783 DATA
    WebRtcIsac_kLpcShapeCdfVec2Ub12 @784 DATA
    WebRtcIsac_kLpcShapeCdfVec2Ub16 @785 DATA
    WebRtcIsac_kLpcShapeCdfVec3Ub12 @786 DATA
    WebRtcIsac_kLpcShapeCdfVec3Ub16 @787 DATA
    WebRtcIsac_kLpcShapeCdfVec4Ub12 @788 DATA
    WebRtcIsac_kLpcShapeCdfVec4Ub16 @789 DATA
    WebRtcIsac_kLpcShapeCdfVec5Ub12 @790 DATA
    WebRtcIsac_kLpcShapeCdfVec5Ub16 @791 DATA
    WebRtcIsac_kLpcShapeCdfVec6Ub12 @792 DATA
    WebRtcIsac_kLpcShapeCdfVec6Ub16 @793 DATA
    WebRtcIsac_kLpcShapeCdfVec7Ub12 @794 DATA
    WebRtcIsac_kLpcShapeCdfVec7Ub16 @795 DATA
    WebRtcIsac_kLpcShapeCdfVec8Ub16 @796 DATA
    WebRtcIsac_kLpcShapeEntropySearchUb12 @797 DATA
    WebRtcIsac_kLpcShapeEntropySearchUb16 @798 DATA
    WebRtcIsac_kLpcShapeLeftRecPointUb12 @799 DATA
    WebRtcIsac_kLpcShapeLeftRecPointUb16 @800 DATA
    WebRtcIsac_kLpcShapeNumRecPointUb12 @801 DATA
    WebRtcIsac_kLpcShapeNumRecPointUb16 @802 DATA
    WebRtcIsac_kLpcShapeQStepSizeUb12 @803 DATA
    WebRtcIsac_kLpcShapeQStepSizeUb16 @804 DATA
    WebRtcIsac_kMeanLarUb12 @805 DATA
    WebRtcIsac_kMeanLarUb16 @806 DATA
    WebRtcIsac_kMeanLpcGain @807 DATA
    WebRtcIsac_kNumQCellLpcGain @808 DATA
    WebRtcIsac_kQArBoundaryLevels @809 DATA
    WebRtcIsac_kQArRc1Cdf @810 DATA
    WebRtcIsac_kQArRc1Levels @811 DATA
    WebRtcIsac_kQArRc2Cdf @812 DATA
    WebRtcIsac_kQArRc2Levels @813 DATA
    WebRtcIsac_kQArRc3Cdf @814 DATA
    WebRtcIsac_kQArRc3Levels @815 DATA
    WebRtcIsac_kQArRc4Cdf @816 DATA
    WebRtcIsac_kQArRc4Levels @817 DATA
    WebRtcIsac_kQArRc5Cdf @818 DATA
    WebRtcIsac_kQArRc5Levels @819 DATA
    WebRtcIsac_kQArRc6Cdf @820 DATA
    WebRtcIsac_kQArRc6Levels @821 DATA
    WebRtcIsac_kQArRcCdfPtr @822 DATA
    WebRtcIsac_kQArRcInitIndex @823 DATA
    WebRtcIsac_kQArRcLevelsPtr @824 DATA
    WebRtcIsac_kQCdfTableSizeGain @825 DATA
    WebRtcIsac_kQGain2BoundaryLevels @826 DATA
    WebRtcIsac_kQGain2Levels @827 DATA
    WebRtcIsac_kQGainCdf @828 DATA
    WebRtcIsac_kQGainCdf_ptr @829 DATA
    WebRtcIsac_kQGainInitIndex @830 DATA
    WebRtcIsac_kQIndexLowerLimitLagLo @831 DATA
    WebRtcIsac_kQIndexLowerLimitLagMid @832 DATA
    WebRtcIsac_kQIndexUpperLimitLagLo @833 DATA
    WebRtcIsac_kQIndexUpperLimitLagMid @834 DATA
    WebRtcIsac_kQInitIndexLagHi @835 DATA
    WebRtcIsac_kQInitIndexLagLo @836 DATA
    WebRtcIsac_kQInitIndexLagMid @837 DATA
    WebRtcIsac_kQKltCdfGain @838 DATA
    WebRtcIsac_kQKltCdfPtrGain @839 DATA
    WebRtcIsac_kQKltCdfPtrShape @840 DATA
    WebRtcIsac_kQKltCdfShape @841 DATA
    WebRtcIsac_kQKltInitIndexGain @842 DATA
    WebRtcIsac_kQKltInitIndexShape @843 DATA
    WebRtcIsac_kQKltLevelsGain @844 DATA
    WebRtcIsac_kQKltLevelsShape @845 DATA
    WebRtcIsac_kQKltMaxIndGain @846 DATA
    WebRtcIsac_kQKltMaxIndShape @847 DATA
    WebRtcIsac_kQKltModelCdf @848 DATA
    WebRtcIsac_kQKltModelCdfPtr @849 DATA
    WebRtcIsac_kQKltModelInitIndex @850 DATA
    WebRtcIsac_kQKltOffsetGain @851 DATA
    WebRtcIsac_kQKltOffsetShape @852 DATA
    WebRtcIsac_kQKltQuantMinGain @853 DATA
    WebRtcIsac_kQKltQuantMinShape @854 DATA
    WebRtcIsac_kQMeanGain1Q12 @855 DATA
    WebRtcIsac_kQMeanGain2Q12 @856 DATA
    WebRtcIsac_kQMeanGain3Q12 @857 DATA
    WebRtcIsac_kQMeanGain4Q12 @858 DATA
    WebRtcIsac_kQMeanLag2Hi @859 DATA
    WebRtcIsac_kQMeanLag2Lo @860 DATA
    WebRtcIsac_kQMeanLag2Mid @861 DATA
    WebRtcIsac_kQMeanLag3Hi @862 DATA
    WebRtcIsac_kQMeanLag3Lo @863 DATA
    WebRtcIsac_kQMeanLag3Mid @864 DATA
    WebRtcIsac_kQMeanLag4Hi @865 DATA
    WebRtcIsac_kQMeanLag4Lo @866 DATA
    WebRtcIsac_kQMeanLag4Mid @867 DATA
    WebRtcIsac_kQPitchGainCdf @868 DATA
    WebRtcIsac_kQPitchLagCdf1Hi @869 DATA
    WebRtcIsac_kQPitchLagCdf1Lo @870 DATA
    WebRtcIsac_kQPitchLagCdf1Mid @871 DATA
    WebRtcIsac_kQPitchLagCdf2Hi @872 DATA
    WebRtcIsac_kQPitchLagCdf2Lo @873 DATA
    WebRtcIsac_kQPitchLagCdf2Mid @874 DATA
    WebRtcIsac_kQPitchLagCdf3Hi @875 DATA
    WebRtcIsac_kQPitchLagCdf3Lo @876 DATA
    WebRtcIsac_kQPitchLagCdf3Mid @877 DATA
    WebRtcIsac_kQPitchLagCdf4Hi @878 DATA
    WebRtcIsac_kQPitchLagCdf4Lo @879 DATA
    WebRtcIsac_kQPitchLagCdf4Mid @880 DATA
    WebRtcIsac_kQPitchLagCdfPtrHi @881 DATA
    WebRtcIsac_kQPitchLagCdfPtrLo @882 DATA
    WebRtcIsac_kQPitchLagCdfPtrMid @883 DATA
    WebRtcIsac_kQPitchLagCdfSizeHi @884 DATA
    WebRtcIsac_kQPitchLagCdfSizeLo @885 DATA
    WebRtcIsac_kQPitchLagCdfSizeMid @886 DATA
    WebRtcIsac_kQPitchLagStepsizeHi @887 DATA
    WebRtcIsac_kQPitchLagStepsizeLo @888 DATA
    WebRtcIsac_kQPitchLagStepsizeMid @889 DATA
    WebRtcIsac_kQSizeLpcGain @890 DATA
    WebRtcIsac_kQindexLowerLimitLagHi @891 DATA
    WebRtcIsac_kQindexUpperLimitLagHi @892 DATA
    WebRtcIsac_kTransform @893 DATA
    WebRtcIsac_kTransformTranspose @894 DATA
    WebRtcIsac_kUpperApFactorsFloat @895 DATA
    WebRtcIsac_version @896
    WebRtcNs_Analyze @897
    WebRtcNs_AnalyzeCore @898
    WebRtcNs_Create @899
    WebRtcNs_Free @900
    WebRtcNs_Init @901
    WebRtcNs_InitCore @902
    WebRtcNs_Process @903
    WebRtcNs_ProcessCore @904
    WebRtcNs_noise_estimate @905
    WebRtcNs_num_freq @906
    WebRtcNs_prior_speech_probability @907
    WebRtcNs_set_policy @908
    WebRtcNs_set_policy_core @909
    WebRtcSpl_32khzTo22khzIntToInt @910
    WebRtcSpl_AddAffineVectorToVector @911
    WebRtcSpl_AddVectorsAndShift @912
    WebRtcSpl_AffineTransformVector @913
    WebRtcSpl_AllPassQMF @914
    WebRtcSpl_AnalysisQMF @915
    WebRtcSpl_AutoCorrToReflCoef @916
    WebRtcSpl_AutoCorrelation @917
    WebRtcSpl_ComplexBitReverse @918
    WebRtcSpl_ComplexFFT @919
    WebRtcSpl_ComplexIFFT @920
    WebRtcSpl_CopyFromEndW16 @921
    WebRtcSpl_CreateRealFFT @922
    WebRtcSpl_CrossCorrelation @923 DATA
    WebRtcSpl_CrossCorrelationC @924
    WebRtcSpl_DivResultInQ31 @925
    WebRtcSpl_DivU32U16 @926
    WebRtcSpl_DivW32HiLow @927
    WebRtcSpl_DivW32W16 @928
    WebRtcSpl_DivW32W16ResW16 @929
    WebRtcSpl_DotProductWithScale @930
    WebRtcSpl_DownBy2IntToShort @931
    WebRtcSpl_DownBy2ShortToInt @932
    WebRtcSpl_DownsampleBy2 @933
    WebRtcSpl_DownsampleFast @934 DATA
    WebRtcSpl_DownsampleFastC @935
    WebRtcSpl_ElementwiseVectorMult @936
    WebRtcSpl_Energy @937
    WebRtcSpl_FilterAR @938
    WebRtcSpl_FilterARFastQ12 @939
    WebRtcSpl_FilterMAFastQ12 @940
    WebRtcSpl_FreeRealFFT @941
    WebRtcSpl_GetHanningWindow @942
    WebRtcSpl_GetScalingSquare @943
    WebRtcSpl_Init @944
    WebRtcSpl_LPBy2IntToInt @945
    WebRtcSpl_LPBy2ShortToInt @946
    WebRtcSpl_LevinsonDurbin @947
    WebRtcSpl_LpcToReflCoef @948
    WebRtcSpl_MaxAbsIndexW16 @949
    WebRtcSpl_MaxAbsValueW16 @950 DATA
    WebRtcSpl_MaxAbsValueW16C @951
    WebRtcSpl_MaxAbsValueW32 @952 DATA
    WebRtcSpl_MaxAbsValueW32C @953
    WebRtcSpl_MaxIndexW16 @954
    WebRtcSpl_MaxIndexW32 @955
    WebRtcSpl_MaxValueW16 @956 DATA
    WebRtcSpl_MaxValueW16C @957
    WebRtcSpl_MaxValueW32 @958 DATA
    WebRtcSpl_MaxValueW32C @959
    WebRtcSpl_MemCpyReversedOrder @960
    WebRtcSpl_MemSetW16 @961
    WebRtcSpl_MemSetW32 @962
    WebRtcSpl_MinIndexW16 @963
    WebRtcSpl_MinIndexW32 @964
    WebRtcSpl_MinValueW16 @965 DATA
    WebRtcSpl_MinValueW16C @966
    WebRtcSpl_MinValueW32 @967 DATA
    WebRtcSpl_MinValueW32C @968
    WebRtcSpl_RandN @969
    WebRtcSpl_RandU @970
    WebRtcSpl_RandUArray @971
    WebRtcSpl_RealForwardFFT @972
    WebRtcSpl_RealInverseFFT @973
    WebRtcSpl_ReflCoefToLpc @974
    WebRtcSpl_Resample16khzTo22khz @975
    WebRtcSpl_Resample16khzTo48khz @976
    WebRtcSpl_Resample22khzTo16khz @977
    WebRtcSpl_Resample22khzTo8khz @978
    WebRtcSpl_Resample32khzTo24khz @979
    WebRtcSpl_Resample44khzTo32khz @980
    WebRtcSpl_Resample48khzTo16khz @981
    WebRtcSpl_Resample48khzTo32khz @982
    WebRtcSpl_Resample48khzTo8khz @983
    WebRtcSpl_Resample8khzTo22khz @984
    WebRtcSpl_Resample8khzTo48khz @985
    WebRtcSpl_ResetResample16khzTo22khz @986
    WebRtcSpl_ResetResample16khzTo48khz @987
    WebRtcSpl_ResetResample22khzTo16khz @988
    WebRtcSpl_ResetResample22khzTo8khz @989
    WebRtcSpl_ResetResample48khzTo16khz @990
    WebRtcSpl_ResetResample48khzTo8khz @991
    WebRtcSpl_ResetResample8khzTo22khz @992
    WebRtcSpl_ResetResample8khzTo48khz @993
    WebRtcSpl_ReverseOrderMultArrayElements @994
    WebRtcSpl_ScaleAndAddVectors @995
    WebRtcSpl_ScaleAndAddVectorsWithRound @996 DATA
    WebRtcSpl_ScaleAndAddVectorsWithRoundC @997
    WebRtcSpl_ScaleVector @998
    WebRtcSpl_ScaleVectorWithSat @999
    WebRtcSpl_Sqrt @1000
    WebRtcSpl_SqrtFloor @1001
    WebRtcSpl_SqrtLocal @1002
    WebRtcSpl_SqrtOfOneMinusXSquared @1003
    WebRtcSpl_SynthesisQMF @1004
    WebRtcSpl_UpBy2IntToInt @1005
    WebRtcSpl_UpBy2IntToShort @1006
    WebRtcSpl_UpBy2ShortToInt @1007
    WebRtcSpl_UpsampleBy2 @1008
    WebRtcSpl_VectorBitShiftW16 @1009
    WebRtcSpl_VectorBitShiftW32 @1010
    WebRtcSpl_VectorBitShiftW32ToW16 @1011
    WebRtcSpl_ZerosArrayW16 @1012
    WebRtcSpl_ZerosArrayW32 @1013
    WebRtcVad_CalcVad16khz @1014
    WebRtcVad_CalcVad32khz @1015
    WebRtcVad_CalcVad48khz @1016
    WebRtcVad_CalcVad8khz @1017
    WebRtcVad_CalculateFeatures @1018
    WebRtcVad_Create @1019
    WebRtcVad_Downsampling @1020
    WebRtcVad_FindMinimum @1021
    WebRtcVad_Free @1022
    WebRtcVad_GaussianProbability @1023
    WebRtcVad_Init @1024
    WebRtcVad_InitCore @1025
    WebRtcVad_Process @1026
    WebRtcVad_ValidRateAndFrameLength @1027
    WebRtcVad_set_mode @1028
    WebRtcVad_set_mode_core @1029
    WebRtc_CreateBuffer @1030
    WebRtc_FreeBuffer @1031
    WebRtc_GetCPUInfo @1032 DATA
    WebRtc_GetCPUInfoNoASM @1033 DATA
    WebRtc_InitBuffer @1034
    WebRtc_MoveReadPtr @1035
    WebRtc_ReadBuffer @1036
    WebRtc_WriteBuffer @1037
    WebRtc_available_read @1038
    WebRtc_available_write @1039
    WebRtc_rdft @1040
    YUVToARGBScaleClip @1041
    YUY2ToARGB @1042
    YUY2ToARGBRow_Any_AVX2 @1043
    YUY2ToARGBRow_Any_SSSE3 @1044
    YUY2ToARGBRow_C @1045
    YUY2ToI420 @1046
    YUY2ToI422 @1047
    YUY2ToNV12 @1048
    YUY2ToUV422Row_Any_AVX2 @1049
    YUY2ToUV422Row_Any_SSE2 @1050
    YUY2ToUV422Row_C @1051
    YUY2ToUVRow_Any_AVX2 @1052
    YUY2ToUVRow_Any_SSE2 @1053
    YUY2ToUVRow_C @1054
    YUY2ToY @1055
    YUY2ToYRow_Any_AVX2 @1056
    YUY2ToYRow_Any_SSE2 @1057
    YUY2ToYRow_C @1058
    __local_stdio_printf_options @1059
    __local_stdio_scanf_options @1060
    _real@00000000 @1061 DATA
    _real@0000000000000000 @1062 DATA
    _real@00800000 @1063 DATA
    _real@07800000 @1064 DATA
    _real@0a4fb11f @1065 DATA
    _real@2edbe6ff @1066 DATA
    _real@30800000 @1067 DATA
    _real@33d2a45c @1068 DATA
    _real@34000000 @1069 DATA
    _real@3419fcef @1070 DATA
    _real@358637bd @1071 DATA
    _real@378065a6 @1072 DATA
    _real@38000000 @1073 DATA
    _real@3800010038000000 @1074 DATA
    _real@382a0a13 @1075 DATA
    _real@38800000 @1076 DATA
    _real@388a697b @1077 DATA
    _real@38d1b717 @1078 DATA
    _real@38f16000 @1079 DATA
    _real@3960a585 @1080 DATA
    _real@39800000 @1081 DATA
    _real@39d2a45c @1082 DATA
    _real@3a1d4952 @1083 DATA
    _real@3a51b717 @1084 DATA
    _real@3a83126f @1085 DATA
    _real@3a96d00039717000 @1086 DATA
    _real@3aa1d0bc @1087 DATA
    _real@3af24b01 @1088 DATA
    _real@3afa284c @1089 DATA
    _real@3b088889 @1090 DATA
    _real@3b23d70a @1091 DATA
    _real@3b800000 @1092 DATA
    _real@3b83126f @1093 DATA
    _real@3b961ebb @1094 DATA
    _real@3bd3733a @1095 DATA
    _real@3c000000 @1096 DATA
    _real@3c23d700 @1097 DATA
    _real@3c23d70a @1098 DATA
    _real@3c23d70a3dcccccd @1099 DATA
    _real@3c7c0fc1 @1100 DATA
    _real@3c800000 @1101 DATA
    _real@3c8b5997 @1102 DATA
    _real@3ca3d700 @1103 DATA
    _real@3ca3d70a @1104 DATA
    _real@3cb0000000000000 @1105 DATA
    _real@3ccccccd @1106 DATA
    _real@3cf5c28f @1107 DATA
    _real@3cf83e10 @1108 DATA
    _real@3d000000 @1109 DATA
    _real@3d042108 @1110 DATA
    _real@3d13c544 @1111 DATA
    _real@3d23d70a @1112 DATA
    _real@3d3c25c268497682 @1113 DATA
    _real@3d4ccccd @1114 DATA
    _real@3d4ccccd3dcccccd @1115 DATA
    _real@3d4ccccdbd4ccccd @1116 DATA
    _real@3d4d6f29 @1117 DATA
    _real@3d719799812dea11 @1118 DATA
    _real@3d800000 @1119 DATA
    _real@3d8f5c29 @1120 DATA
    _real@3daaaaab @1121 DATA
    _real@3dcccccd @1122 DATA
    _real@3dcccccd3f19999a @1123 DATA
    _real@3ddb7cdfd9d7bdbb @1124 DATA
    _real@3de38e39 @1125 DATA
    _real@3e000000 @1126 DATA
    _real@3e19999a @1127 DATA
    _real@3e490fdb @1128 DATA
    _real@3e4ccccd @1129 DATA
    _real@3e7ad7f29abcaf48 @1130 DATA
    _real@3e800000 @1131 DATA
    _real@3e882da4 @1132 DATA
    _real@3e99999a @1133 DATA
    _real@3e99999a3e19999a @1134 DATA
    _real@3e9a5fb2 @1135 DATA
    _real@3eb0c6f7a0b5ed8d @1136 DATA
    _real@3ecccccd @1137 DATA
    _real@3ee66666 @1138 DATA
    _real@3ef23456789abcdf @1139 DATA
    _real@3f000000 @1140 DATA
    _real@3f00000040200000 @1141 DATA
    _real@3f19999a @1142 DATA
    _real@3f19999a3f000000 @1143 DATA
    _real@3f1a36e2eb1c432d @1144 DATA
    _real@3f333333 @1145 DATA
    _real@3f3504f3 @1146 DATA
    _real@3f3a36e2eb1c432d @1147 DATA
    _real@3f400000 @1148 DATA
    _real@3f462302ab148ac4 @1149 DATA
    _real@3f490fdb @1150 DATA
    _real@3f4b4e81b312fb51 @1151 DATA
    _real@3f4c163c469e1a40 @1152 DATA
    _real@3f4ccccd @1153 DATA
    _real@3f50000000000000 @1154 DATA
    _real@3f50624dd2f1a9fc @1155 DATA
    _real@3f59999a @1156 DATA
    _real@3f666666 @1157 DATA
    _real@3f71111111111111 @1158 DATA
    _real@3f733333 @1159 DATA
    _real@3f747ae147ae147b @1160 DATA
    _real@3f7851ec @1161 DATA
    _real@3f7ae148 @1162 DATA
    _real@3f7d70a4 @1163 DATA
    _real@3f7d70a43f666666 @1164 DATA
    _real@3f7fb4983f7ff0e9 @1165 DATA
    _real@3f7fbe77 @1166 DATA
    _real@3f7fc9633f800000 @1167 DATA
    _real@3f7ff875 @1168 DATA
    _real@3f7ffe00 @1169 DATA
    _real@3f800000 @1170 DATA
    _real@3f80000000000000 @1171 DATA
    _real@3f8000003f866666 @1172 DATA
    _real@3f800100 @1173 DATA
    _real@3f800347 @1174 DATA
    _real@3f80068e @1175 DATA
    _real@3f8020c5 @1176 DATA
    _real@3f8147ae @1177 DATA
    _real@3f84467381d7dbf5 @1178 DATA
    _real@3f847ae147ae147b @1179 DATA
    _real@3f8acee9f37bebce @1180 DATA
    _real@3f8ccccd @1181 DATA
    _real@3f965ddfc7bfd364 @1182 DATA
    _real@3f9a76c2 @1183 DATA
    _real@3fa46211ff90ea27 @1184 DATA
    _real@3fa66666 @1185 DATA
    _real@3fa999999999999a @1186 DATA
    _real@3fb0000000000000 @1187 DATA
    _real@3fb37240b6a60bc5 @1188 DATA
    _real@3fb47ae147ae147b @1189 DATA
    _real@3fb504f3 @1190 DATA
    _real@3fb999999999999a @1191 DATA
    _real@3fbf3d79260fd3e5 @1192 DATA
    _real@3fc00000 @1193 DATA
    _real@3fc5555555555555 @1194 DATA
    _real@3fc999999999999a @1195 DATA
    _real@3fd0000000000000 @1196 DATA
    _real@3fd3333333333333 @1197 DATA
    _real@3fd6666666666666 @1198 DATA
    _real@3fd999999999999a @1199 DATA
    _real@3fdae147ae147ae1 @1200 DATA
    _real@3fdcccccc0000000 @1201 DATA
    _real@3fdccccccccccccd @1202 DATA
    _real@3fdeb851eb851eb8 @1203 DATA
    _real@3fe0000000000000 @1204 DATA
    _real@3fe0f5c28f5c28f6 @1205 DATA
    _real@3fe3333333333333 @1206 DATA
    _real@3fe33a48e72ec104 @1207 DATA
    _real@3fe4cccccccccccd @1208 DATA
    _real@3fe5555555555556 @1209 DATA
    _real@3fe570a3d70a3d71 @1210 DATA
    _real@3fe6666666666666 @1211 DATA
    _real@3fe6a09e667f3bcd @1212 DATA
    _real@3fe8000000000000 @1213 DATA
    _real@3fe999999999999a @1214 DATA
    _real@3feaaaaaaaaaaaab @1215 DATA
    _real@3feccccccccccccd @1216 DATA
    _real@3fee666666666666 @1217 DATA
    _real@3fefae147ae147ae @1218 DATA
    _real@3fefdf43c7d5ed07 @1219 DATA
    _real@3fefff2e48e8a71e @1220 DATA
    _real@3ff0000000000000 @1221 DATA
    _real@3ff00068db8bac71 @1222 DATA
    _real@3ff028f5c28f5c29 @1223 DATA
    _real@3ff0a3d70a3d70a4 @1224 DATA
    _real@3ff547ae147ae148 @1225 DATA
    _real@3ff8000000000000 @1226 DATA
    _real@3ff9072c6a50b125 @1227 DATA
    _real@3ff921fb54442d18 @1228 DATA
    _real@3ff97782 @1229 DATA
    _real@3ffde5f9f92b33b0 @1230 DATA
    _real@3ffe4417 @1231 DATA
    _real@3fff9e0a @1232 DATA
    _real@40000000 @1233 DATA
    _real@4000000000000000 @1234 DATA
    _real@4000ccccc0000000 @1235 DATA
    _real@40049ec3225c2d8e @1236 DATA
    _real@400547ae147ae148 @1237 DATA
    _real@4008000000000000 @1238 DATA
    _real@4008151824c7587f @1239 DATA
    _real@4009072c6a50b125 @1240 DATA
    _real@400921fb53c8d4f1 @1241 DATA
    _real@400921fb54442d18 @1242 DATA
    _real@400bae147ae147ae @1243 DATA
    _real@4010000000000000 @1244 DATA
    _real@4014000000000000 @1245 DATA
    _real@4017473714ea2cb4 @1246 DATA
    _real@4017473714ea599b @1247 DATA
    _real@4018000000000000 @1248 DATA
    _real@401921fb54442d18 @1249 DATA
    _real@401a8279 @1250 DATA
    _real@40200000 @1251 DATA
    _real@4020000000000000 @1252 DATA
    _real@40215f2ced3870b9 @1253 DATA
    _real@4024000000000000 @1254 DATA
    _real@4026000000000000 @1255 DATA
    _real@402921fb54442d18 @1256 DATA
    _real@402e000000000000 @1257 DATA
    _real@402efbdeb14f4eda @1258 DATA
    _real@4030000000000000 @1259 DATA
    _real@4034000000000000 @1260 DATA
    _real@4036000000000000 @1261 DATA
    _real@403e000000000000 @1262 DATA
    _real@40400000 @1263 DATA
    _real@4040000000000000 @1264 DATA
    _real@4044000000000000 @1265 DATA
    _real@4044800000000000 @1266 DATA
    _real@4045c19e @1267 DATA
    _real@4049000000000000 @1268 DATA
    _real@40490fdb @1269 DATA
    _real@4056800000000000 @1270 DATA
    _real@4060000000000000 @1271 DATA
    _real@4060fff7 @1272 DATA
    _real@4061800000000000 @1273 DATA
    _real@4064000000000000 @1274 DATA
    _real@4069000000000000 @1275 DATA
    _real@406e000000000000 @1276 DATA
    _real@40700000 @1277 DATA
    _real@40800000 @1278 DATA
    _real@408000003e800000 @1279 DATA
    _real@4082c00000000000 @1280 DATA
    _real@408f400000000000 @1281 DATA
    _real@4090000000000000 @1282 DATA
    _real@409f400000000000 @1283 DATA
    _real@40a00000 @1284 DATA
    _real@40c00000 @1285 DATA
    _real@40c3880000000000 @1286 DATA
    _real@40c90fdb @1287 DATA
    _real@40cf400000000000 @1288 DATA
    _real@40d1940000000000 @1289 DATA
    _real@40d3880000000000 @1290 DATA
    _real@40da5e0000000000 @1291 DATA
    _real@40df400000000000 @1292 DATA
    _real@40e16a1701a12784 @1293 DATA
    _real@40efc02000000000 @1294 DATA
    _real@40ff400000000000 @1295 DATA
    _real@41000000 @1296 DATA
    _real@41200000 @1297 DATA
    _real@412e848000000000 @1298 DATA
    _real@41400000 @1299 DATA
    _real@41500000 @1300 DATA
    _real@41700000 @1301 DATA
    _real@41800000 @1302 DATA
    _real@41980000 @1303 DATA
    _real@419f999a @1304 DATA
    _real@41a00000 @1305 DATA
    _real@41c80000 @1306 DATA
    _real@41e0000000000000 @1307 DATA
    _real@41f00000 @1308 DATA
    _real@41fa0000 @1309 DATA
    _real@42040000 @1310 DATA
    _real@42200000 @1311 DATA
    _real@4220000041000000 @1312 DATA
    _real@42480000 @1313 DATA
    _real@42640000 @1314 DATA
    _real@426c0000 @1315 DATA
    _real@42800000 @1316 DATA
    _real@42b20000 @1317 DATA
    _real@42c80000 @1318 DATA
    _real@4330000000000000 @1319 DATA
    _real@43480000 @1320 DATA
    _real@4348000043bb8000 @1321 DATA
    _real@437a0000 @1322 DATA
    _real@437f0000 @1323 DATA
    _real@43c80000 @1324 DATA
    _real@43dc0000 @1325 DATA
    _real@447a0000 @1326 DATA
    _real@44c80000 @1327 DATA
    _real@453b8000 @1328 DATA
    _real@4591d555 @1329 DATA
    _real@45a00000 @1330 DATA
    _real@45ea6000 @1331 DATA
    _real@45fa0000 @1332 DATA
    _real@4611d555 @1333 DATA
    _real@461c4000 @1334 DATA
    _real@461e672a @1335 DATA
    _real@467a0000 @1336 DATA
    _real@469c4000 @1337 DATA
    _real@46c0b555 @1338 DATA
    _real@46dac000 @1339 DATA
    _real@46ead298 @1340 DATA
    _real@46fa0000 @1341 DATA
    _real@46ff7800 @1342 DATA
    _real@46fffd00 @1343 DATA
    _real@46fffe00 @1344 DATA
    _real@46fffe0047000000 @1345 DATA
    _real@47000000 @1346 DATA
    _real@4703bcd8 @1347 DATA
    _real@470f9e4d @1348 DATA
    _real@475ac000 @1349 DATA
    _real@47610000 @1350 DATA
    _real@477f3555 @1351 DATA
    _real@47c35000 @1352 DATA
    _real@481c4000 @1353 DATA
    _real@48610000 @1354 DATA
    _real@4888b800 @1355 DATA
    _real@48927c00 @1356 DATA
    _real@49742400 @1357 DATA
    _real@49f42400 @1358 DATA
    _real@4c27e777 @1359 DATA
    _real@4cbebc20 @1360 DATA
    _real@4e800000 @1361 DATA
    _real@4f000000 @1362 DATA
    _real@7f7fffff @1363 DATA
    _real@7f800000 @1364 DATA
    _real@7fefffffffffffff @1365 DATA
    _real@8000000000000000 @1366 DATA
    _real@b896feb4 @1367 DATA
    _real@b9800000 @1368 DATA
    _real@bb05e7eb @1369 DATA
    _real@bbd9111f @1370 DATA
    _real@bc800000 @1371 DATA
    _real@bc8b9bc2 @1372 DATA
    _real@bcf5c28f @1373 DATA
    _real@bd23d70a @1374 DATA
    _real@bd343958 @1375 DATA
    _real@bd4ccccd @1376 DATA
    _real@bd50f886 @1377 DATA
    _real@be99999a @1378 DATA
    _real@bf000000 @1379 DATA
    _real@bf3504f3 @1380 DATA
    _real@bf3a36e2eb1c432d @1381 DATA
    _real@bf400000 @1382 DATA
    _real@bf50624dd2f1a9fc @1383 DATA
    _real@bf666666 @1384 DATA
    _real@bf73290d @1385 DATA
    _real@bf7c99f8 @1386 DATA
    _real@bf7f44b3 @1387 DATA
    _real@bf800000 @1388 DATA
    _real@bf8000003f800000 @1389 DATA
    _real@bfa66666 @1390 DATA
    _real@bfc00000 @1391 DATA
    _real@bfc999999999999a @1392 DATA
    _real@bfd0000000000000 @1393 DATA
    _real@bfe0000000000000 @1394 DATA
    _real@bfec467381d7dbf5 @1395 DATA
    _real@bfeccccccccccccd @1396 DATA
    _real@bff0000000000000 @1397 DATA
    _real@bff6666666666666 @1398 DATA
    _real@bfffec86fb9c6f7f @1399 DATA
    _real@c0000000 @1400 DATA
    _real@c000000000000000 @1401 DATA
    _real@c0066666 @1402 DATA
    _real@c010000000000000 @1403 DATA
    _real@c014000000000000 @1404 DATA
    _real@c01921fb54442d18 @1405 DATA
    _real@c024000000000000 @1406 DATA
    _real@c02e000000000000 @1407 DATA
    _real@c037000000000000 @1408 DATA
    _real@c03e000000000000 @1409 DATA
    _real@c069000000000000 @1410 DATA
    _real@c0800000 @1411 DATA
    _real@c0e00000 @1412 DATA
    _real@c1000000 @1413 DATA
    _real@c1200000 @1414 DATA
    _real@c1400000 @1415 DATA
    _real@c1f80000 @1416 DATA
    _real@c2480000 @1417 DATA
    _real@c2b40000 @1418 DATA
    _real@c2b4999a @1419 DATA
    _real@c2b49e35 @1420 DATA
    _real@c2c80000 @1421 DATA
    _real@c2fde2a9 @1422 DATA
    _real@c3200000 @1423 DATA
    _real@c33f8000 @1424 DATA
    _real@c6b96de8 @1425 DATA
    _real@c6fa0000 @1426 DATA
    _real@c6ff7800 @1427 DATA
    _real@c6ffff00 @1428 DATA
    _real@c7000000 @1429 DATA
    _xmm@00000000000000000000000000000000 @1430 DATA
    _xmm@00000000000000000000000100000000 @1431 DATA
    _xmm@00000000000000000000000300000003 @1432 DATA
    _xmm@00000000000000000000000a00000001 @1433 DATA
    _xmm@00000000000000000006000600060006 @1434 DATA
    _xmm@000000000000000000ff00ff00ff00ff @1435 DATA
    _xmm@00000000000000003dcccccd3dcccccd @1436 DATA
    _xmm@00000000000000003f0000003f000000 @1437 DATA
    _xmm@00000000000000003f8000003f800000 @1438 DATA
    _xmm@0000000000000000447a0000447a0000 @1439 DATA
    _xmm@00000000000000004530000043300000 @1440 DATA
    _xmm@0000000000000000475ac00000000000 @1441 DATA
    _xmm@0000000000000000bf800000bf800000 @1442 DATA
    _xmm@0000000000000000c2c8000042c80000 @1443 DATA
    _xmm@00000000000000010000000000000000 @1444 DATA
    _xmm@00000000000000010000002000000005 @1445 DATA
    _xmm@00000000000000020000000000000002 @1446 DATA
    _xmm@00000000000000180000000000000018 @1447 DATA
    _xmm@00000000000000ff00000000000000ff @1448 DATA
    _xmm@0000000042040000c120000000000000 @1449 DATA
    _xmm@00000000ffffffff00000000ffffffff @1450 DATA
    _xmm@00000001000000010000000100000000 @1451 DATA
    _xmm@00000001000000010000000100000001 @1452 DATA
    _xmm@000000010000012c000000640000000a @1453 DATA
    _xmm@00000002000000020000000200000002 @1454 DATA
    _xmm@00000003000000020000000100000000 @1455 DATA
    _xmm@00000004000000000000000000000000 @1456 DATA
    _xmm@00000004000000030000000200000001 @1457 DATA
    _xmm@00000004000000040000000400000004 @1458 DATA
    _xmm@000000040000000500000008000000fa @1459 DATA
    _xmm@00000006000000060000000600000006 @1460 DATA
    _xmm@00000008000000080000000800000008 @1461 DATA
    _xmm@0000000a0000000a0000000100000001 @1462 DATA
    _xmm@0000000c000000ff000000000000012c @1463 DATA
    _xmm@0000000f000000000000000000000000 @1464 DATA
    _xmm@0000000f0000000f0000000f0000000f @1465 DATA
    _xmm@00000010000000100000001000000010 @1466 DATA
    _xmm@00000018000000180000001800000018 @1467 DATA
    _xmm@0000001f0000001f0000001f0000001f @1468 DATA
    _xmm@00000020000000050000000400000005 @1469 DATA
    _xmm@00000033000000330000003300000033 @1470 DATA
    _xmm@00000040000000400000004000000040 @1471 DATA
    _xmm@00000055000000550000005500000055 @1472 DATA
    _xmm@00000064000000640000006400000064 @1473 DATA
    _xmm@0000007f0000007f0000007f0000007f @1474 DATA
    _xmm@00000080000000800000008000000080 @1475 DATA
    _xmm@000000f0000000f0000000f0000000f0 @1476 DATA
    _xmm@000000ff000000ff000000ff000000ff @1477 DATA
    _xmm@00000100000001000000010000000100 @1478 DATA
    _xmm@000003e0000003e0000003e0000003e0 @1479 DATA
    _xmm@000003ff000003ff000003ff000003ff @1480 DATA
    _xmm@0000040000000004000000000000000a @1481 DATA
    _xmm@000007e0000007e0000007e0000007e0 @1482 DATA
    _xmm@00000f0000000f0000000f0000000f00 @1483 DATA
    _xmm@00001080000010800000108000001080 @1484 DATA
    _xmm@00001388000013880000138800001388 @1485 DATA
    _xmm@00003ddf00003ccf00003baf00003a8f @1486 DATA
    _xmm@00007c0000007c0000007c0000007c00 @1487 DATA
    _xmm@00007d000000001e00003e8000000067 @1488 DATA
    _xmm@00008080000080800000808000008080 @1489 DATA
    _xmm@0000f8000000f8000000f8000000f800 @1490 DATA
    _xmm@0000ff000000ff000000ff000000ff00 @1491 DATA
    _xmm@0000ff800000ff800000ff800000ff80 @1492 DATA
    _xmm@0000ffff0000ffff0000ffff00000001 @1493 DATA
    _xmm@0000ffff0000ffff0000ffff0000ffff @1494 DATA
    _xmm@0000ffffffff0000ffffffff0000ffff @1495 DATA
    _xmm@0000ffffffffffffffffffffffffffff @1496 DATA
    _xmm@00010001000100010001000100010001 @1497 DATA
    _xmm@000f0000000f0000000f0000000f0000 @1498 DATA
    _xmm@000ffc00000ffc00000ffc00000ffc00 @1499 DATA
    _xmm@00190019001900190019001900190019 @1500 DATA
    _xmm@001f0000001f0000001f0000001f0000 @1501 DATA
    _xmm@00420042004200420042004200420042 @1502 DATA
    _xmm@004a7f35004a7f35004a7f35004a7f35 @1503 DATA
    _xmm@00700070007000700070007000700070 @1504 DATA
    _xmm@007f8000007f8000007f8000007f8000 @1505 DATA
    _xmm@007fffff007fffff007fffff007fffff @1506 DATA
    _xmm@00f0000000f0000000f0000000f00000 @1507 DATA
    _xmm@00ff000000ff000000ff000000ff0000 @1508 DATA
    _xmm@00ff00ff00ff00ff00ff00ff00ff00ff @1509 DATA
    _xmm@00ffffff000000ffffff000000ffffff @1510 DATA
    _xmm@01010101010101010101010101010101 @1511 DATA
    _xmm@014490fc00a2ab200101cfec00ccc996 @1512 DATA
    _xmm@02020202020202020202020202020202 @1513 DATA
    _xmm@03030303030303030303030303030303 @1514 DATA
    _xmm@03e0000003e0000003e0000003e00000 @1515 DATA
    _xmm@07070707070707070707070707070707 @1516 DATA
    _xmm@07e0000007e0000007e0000007e00000 @1517 DATA
    _xmm@08080808080808080808080808080808 @1518 DATA
    _xmm@0f0000000f0000000f0000000f000000 @1519 DATA
    _xmm@0f0f0f0f0f0f0f0f0f0f0f0f0f0f0f0f @1520 DATA
    _xmm@10101010101010101010101010101010 @1521 DATA
    _xmm@18181818181818181818181818181818 @1522 DATA
    _xmm@1f1f1f1f1f1f1f1f1f1f1f1f1f1f1f1f @1523 DATA
    _xmm@27102710271027102710271027102710 @1524 DATA
    _xmm@2edbe6ff2edbe6ff2edbe6ff2edbe6ff @1525 DATA
    _xmm@33333333333333333333333333333333 @1526 DATA
    _xmm@38383838383838383838383838383838 @1527 DATA
    _xmm@3c03126f3c03126f3c03126f3c03126f @1528 DATA
    _xmm@3c8000003c8000003c8000003c800000 @1529 DATA
    _xmm@3d4ccccd3f0000003f0000003e4ccccd @1530 DATA
    _xmm@3d8f5c293e99999a3ecccccd3e99999a @1531 DATA
    _xmm@3dcccccd3e99999a3f8ccccd3f8b851f @1532 DATA
    _xmm@3dcccccd3f19999a3f6666663f99999a @1533 DATA
    _xmm@3dcccccd3f7333333e4ccccd3f800000 @1534 DATA
    _xmm@3e99999a46d6ead74120000049c80000 @1535 DATA
    _xmm@3ea2ecdd3ea2ecdd3ea2ecdd3ea2ecdd @1536 DATA
    _xmm@3eaca4183eaca4183eaca4183eaca418 @1537 DATA
    _xmm@3ec3ef163ec3ef163ec3ef163ec3ef16 @1538 DATA
    _xmm@3ec3ef163ec3ef163f6c835f3f6c835f @1539 DATA
    _xmm@3ec3ef16bec3ef16bf6c835f3f6c835f @1540 DATA
    _xmm@3ecccccd3ecccccd3ecccccd3ecccccd @1541 DATA
    _xmm@3f00000000000000000000003f000000 @1542 DATA
    _xmm@3f0000003f0000003f0000003f000000 @1543 DATA
    _xmm@3f0000003f8000003f0000003f000000 @1544 DATA
    _xmm@3f285ada3f285ada3f285ada3f285ada @1545 DATA
    _xmm@3f3504f33f3504f33f3504f33f3504f3 @1546 DATA
    _xmm@3f3f3f3f3f3f3f3f3f3f3f3f3f3f3f3f @1547 DATA
    _xmm@3f462302ab148ac43f462302ab148ac4 @1548 DATA
    _xmm@3f462302ab148ac43f965ddfc7bfd364 @1549 DATA
    _xmm@3f6c835f3f6c835f3f6c835f3f6c835f @1550 DATA
    _xmm@3f8000003dcccccd3d4ccccd3dcccccd @1551 DATA
    _xmm@3f8000003f8000003f8000003f800000 @1552 DATA
    _xmm@3f800000bf8000003f800000bf800000 @1553 DATA
    _xmm@3f8038843f8038843f8038843f803884 @1554 DATA
    _xmm@3f84467381d7dbf53f84467381d7dbf5 @1555 DATA
    _xmm@3f847ae147ae147b3f847ae147ae147b @1556 DATA
    _xmm@3f847ae147ae147b3fe0000000000000 @1557 DATA
    _xmm@3f965ddfc7bfd3643f462302ab148ac4 @1558 DATA
    _xmm@3f965ddfc7bfd3643f965ddfc7bfd364 @1559 DATA
    _xmm@3fa08654a2d4f6da3fa08654a2d4f6da @1560 DATA
    _xmm@3fbf3d79260fd3e53f965ddfc7bfd364 @1561 DATA
    _xmm@3fbf3d79260fd3e53fbf3d79260fd3e5 @1562 DATA
    _xmm@3fbf3d79260fd3e53fe33a48e72ec104 @1563 DATA
    _xmm@3fd147ae147ae1483fd147ae147ae148 @1564 DATA
    _xmm@3fd99999a00000003fd99999a0000000 @1565 DATA
    _xmm@3fe00000000000003fe0000000000000 @1566 DATA
    _xmm@3fe33a48e72ec1043fbf3d79260fd3e5 @1567 DATA
    _xmm@3fe33a48e72ec1043fe33a48e72ec104 @1568 DATA
    _xmm@3fefae147ae147ae3fefae147ae147ae @1569 DATA
    _xmm@3ff000003ff000003ff000003ff00000 @1570 DATA
    _xmm@400000003a83126f3f0000003ba3d70a @1571 DATA
    _xmm@4000ccccc00000004000ccccc0000000 @1572 DATA
    _xmm@40040000000000004004000000000000 @1573 DATA
    _xmm@40140000000000004014000000000000 @1574 DATA
    _xmm@4026537b4026537b4026537b4026537b @1575 DATA
    _xmm@4047691a4047691a4047691a4047691a @1576 DATA
    _xmm@40490000000000004069000000000000 @1577 DATA
    _xmm@4049000000000000c000000000000000 @1578 DATA
    _xmm@40b000000000000040b0000000000000 @1579 DATA
    _xmm@40d388000000000040eb580000000000 @1580 DATA
    _xmm@4120000040a000000000000041200000 @1581 DATA
    _xmm@41200000430000004280000043800000 @1582 DATA
    _xmm@43010000430100004301000043010000 @1583 DATA
    _xmm@43800000438000004380000043800000 @1584 DATA
    _xmm@45300000000000004330000000000000 @1585 DATA
    _xmm@46fffe0046fffe0046fffe0046fffe00 @1586 DATA
    _xmm@4b0000004b0000004b0000004b000000 @1587 DATA
    _xmm@53000000530000005300000053000000 @1588 DATA
    _xmm@55000000550000005500000055000000 @1589 DATA
    _xmm@55555555555555555555555555555555 @1590 DATA
    _xmm@6465746e656d656c706d692073455341 @1591 DATA
    _xmm@7c0000007c0000007c0000007c000000 @1592 DATA
    _xmm@7fffffff000000007fffffff00000000 @1593 DATA
    _xmm@7fffffff7fffffff7fffffff7fffffff @1594 DATA
    _xmm@7fffffffffffffff7fffffffffffffff @1595 DATA
    _xmm@80000000000000008000000000000000 @1596 DATA
    _xmm@80000000800000008000000080000000 @1597 DATA
    _xmm@80000064800000648000006480000064 @1598 DATA
    _xmm@80001388800013888000138880001388 @1599 DATA
    _xmm@80008000800080008000800080008000 @1600 DATA
    _xmm@bd0d0cc5bd0d0cc5bd0d0cc5bd0d0cc5 @1601 DATA
    _xmm@bec3ef16bec3ef16bec3ef16bec3ef16 @1602 DATA
    _xmm@bf000000bf000000bf000000bf000000 @1603 DATA
    _xmm@bf3504f33f3504f33f3504f33f3504f3 @1604 DATA
    _xmm@bf3504f33f3504f3bf3504f33f3504f3 @1605 DATA
    _xmm@bf3504f3bf3504f33f3504f33f3504f3 @1606 DATA
    _xmm@bf3504f3bf3504f3bf3504f3bf3504f3 @1607 DATA
    _xmm@bf6c835f3f6c835fbec3ef163ec3ef16 @1608 DATA
    _xmm@bf6c835fbf6c835f3ec3ef163ec3ef16 @1609 DATA
    _xmm@bf8000003f800000bf8000003f800000 @1610 DATA
    _xmm@bf800000bf800000bf800000bf800000 @1611 DATA
    _xmm@bf9da2c9bf9da2c9bf9da2c9bf9da2c9 @1612 DATA
    _xmm@bfe00000000000003fe0000000000000 @1613 DATA
    _xmm@bff4cccccccccccdbff4cccccccccccd @1614 DATA
    _xmm@c0000000c0000000c0000000c0000000 @1615 DATA
    _xmm@c00ffc00c00ffc00c00ffc00c00ffc00 @1616 DATA
    _xmm@c054bfadc054bfadc054bfadc054bfad @1617 DATA
    _xmm@c2c8000042c80000c2c80000c2c80000 @1618 DATA
    _xmm@c2fdffffc2fdffffc2fdffffc2fdffff @1619 DATA
    _xmm@c3bf8000c3bf8000c3bf8000c3bf8000 @1620 DATA
    _xmm@c7000000c7000000c7000000c7000000 @1621 DATA
    _xmm@d3000080d3000080d3000080d3000080 @1622 DATA
    _xmm@f0000000f0000000f0000000f0000000 @1623 DATA
    _xmm@f000f000f000f000f000f000f000f000 @1624 DATA
    _xmm@f0f0f0f0f0f0f0f0f0f0f0f0f0f0f0f0 @1625 DATA
    _xmm@f8000000f8000000f8000000f8000000 @1626 DATA
    _xmm@f8f8f8f8f8f8f8f8f8f8f8f8f8f8f8f8 @1627 DATA
    _xmm@fc000000fc000000fc000000fc000000 @1628 DATA
    _xmm@fcfcfcfcfcfcfcfcfcfcfcfcfcfcfcfc @1629 DATA
    _xmm@ff000000ff000000ff000000ff000000 @1630 DATA
    _xmm@ff00ffff00ffff00ffff00ffff00ffff @1631 DATA
    _xmm@ff00ffffffffffffff00ffffffffffff @1632 DATA
    _xmm@ff95ff95ff95ff95ff95ff95ff95ff95 @1633 DATA
    _xmm@ffa2ffa2ffa2ffa2ffa2ffa2ffa2ffa2 @1634 DATA
    _xmm@ffacffacffacffacffacffacffacffac @1635 DATA
    _xmm@ffb6ffb6ffb6ffb6ffb6ffb6ffb6ffb6 @1636 DATA
    _xmm@ffd5ffd5ffd5ffd5ffd5ffd5ffd5ffd5 @1637 DATA
    _xmm@ffdaffdaffdaffdaffdaffdaffdaffda @1638 DATA
    _xmm@ffecffecffecffecffecffecffecffec @1639 DATA
    _xmm@ffeeffeeffeeffeeffeeffeeffeeffee @1640 DATA
    _xmm@ffff0000ffffffff0000ffffffff0000 @1641 DATA
    _xmm@ffff0000ffffffffffff0000ffffffff @1642 DATA
    _xmm@ffff00ffff00ffff00ffff00ffff00ff @1643 DATA
    _xmm@fffffb78fffffb78fffffb78fffffb78 @1644 DATA
    _xmm@fffffff0ffffffe0ffffffe0ffffffe0 @1645 DATA
    _xmm@ffffffff0000ffffffff0000ffffffff @1646 DATA
    _xmm@ffffffff0000ffffffffffff0000ffff @1647 DATA
    _xmm@ffffffff0000ffffffffffffffffffff @1648 DATA
    _xmm@ffffffffff000000ffffffffff000000 @1649 DATA
    _xmm@ffffffffffff0000ffffffffffffffff @1650 DATA
    _xmm@ffffffffffffffff0000ffffffffffff @1651 DATA
    _xmm@ffffffffffffffffffff00000000ffff @1652 DATA
    _xmm@ffffffffffffffffffffffff0000ffff @1653 DATA
    _xmm@ffffffffffffffffffffffffffffffff @1654 DATA
    cpu_info_ @1655 DATA
    fixed_invtbl8 @1656 DATA
    fprintf @1657
    kWebRtcSpl_CountLeadingZeros32_Table @1658 DATA
    kYuvH709Constants @1659 DATA
    kYuvI601Constants @1660 DATA
    kYuvJPEGConstants @1661 DATA
    kYvuH709Constants @1662 DATA
    kYvuI601Constants @1663 DATA
    kYvuJPEGConstants @1664 DATA
    printf @1665
    rtc_FatalMessage @1666
    rtc_WavClose @1667
    rtc_WavNumChannels @1668
    rtc_WavNumSamples @1669
    rtc_WavOpen @1670
    rtc_WavSampleRate @1671
    rtc_WavWriteSamples @1672
    snprintf @1673
    sscanf @1674
